(lp1
(lp2
(lp3
I3
aa(lp4
I3
aa(lp5
I3
aa(lp6
I3
aa(lp7
I3
aa(lp8
I3
aa(lp9
I3
aa(lp10
I3
aa(lp11
I3
aa(lp12
I3
aa(lp13
I3
aa(lp14
I3
aa(lp15
I3
aa(lp16
I3
aa(lp17
I3
aa(lp18
I3
aa(lp19
I3
aa(lp20
I3
aa(lp21
I3
aa(lp22
I3
aa(lp23
I3
aa(lp24
I3
aa(lp25
I3
aa(lp26
I3
aa(lp27
I3
aa(lp28
I3
aa(lp29
I3
aa(lp30
I3
aa(lp31
I3
aa(lp32
I3
aa(lp33
I3
aa(lp34
I3
aa(lp35
I3
aa(lp36
I3
aa(lp37
I3
aa(lp38
I3
aa(lp39
I3
aa(lp40
I3
aa(lp41
I3
aa(lp42
I3
aa(lp43
I3
aa(lp44
I3
aa(lp45
I3
aaa(lp46
(lp47
I7
aa(lp48
I7
aa(lp49
I7
aa(lp50
I7
aa(lp51
I7
aa(lp52
I7
aa(lp53
I7
aa(lp54
I7
aa(lp55
I7
aa(lp56
I7
aa(lp57
I7
aa(lp58
I7
aa(lp59
I7
aa(lp60
I7
aa(lp61
I7
aa(lp62
I7
aa(lp63
I7
aa(lp64
I7
aa(lp65
I7
aa(lp66
I7
aa(lp67
I7
aa(lp68
I7
aa(lp69
I7
aa(lp70
I7
aa(lp71
I7
aa(lp72
I7
aa(lp73
I7
aa(lp74
I7
aa(lp75
I7
aa(lp76
I7
aa(lp77
I7
aa(lp78
I7
aa(lp79
I7
aa(lp80
I7
aa(lp81
I7
aa(lp82
I7
aa(lp83
I7
aa(lp84
I7
aa(lp85
I7
aa(lp86
I7
aa(lp87
I7
aa(lp88
I7
aaa(lp89
(lp90
I8
aa(lp91
I8
aa(lp92
I8
aa(lp93
I8
aa(lp94
I8
aa(lp95
I8
aa(lp96
I8
aa(lp97
I8
aa(lp98
I8
aa(lp99
I8
aa(lp100
I8
aa(lp101
I8
aa(lp102
I8
aa(lp103
I8
aa(lp104
I8
aa(lp105
I8
aa(lp106
I8
aa(lp107
I8
aa(lp108
I8
aaa(lp109
(lp110
I10
aa(lp111
I10
aa(lp112
I10
aa(lp113
I10
aa(lp114
I10
aa(lp115
I10
aa(lp116
I10
aa(lp117
I10
aa(lp118
I10
aa(lp119
I10
aa(lp120
I10
aa(lp121
I10
aa(lp122
I10
aa(lp123
I10
aa(lp124
I10
aa(lp125
I10
aa(lp126
I10
aa(lp127
I10
aaa(lp128
(lp129
I12
aa(lp130
I12
aa(lp131
I12
aa(lp132
I12
aa(lp133
I12
aa(lp134
I12
aa(lp135
I12
aa(lp136
I12
aa(lp137
I12
aa(lp138
I12
aa(lp139
I12
aa(lp140
I12
aa(lp141
I12
aa(lp142
I12
aa(lp143
I12
aa(lp144
I12
aa(lp145
I12
aa(lp146
I12
aa(lp147
I12
aa(lp148
I12
aa(lp149
I12
aa(lp150
I12
aa(lp151
I12
aa(lp152
I12
aa(lp153
I12
aa(lp154
I12
aa(lp155
I12
aa(lp156
I12
aa(lp157
I12
aa(lp158
I12
aa(lp159
I12
aa(lp160
I12
aa(lp161
I12
aa(lp162
I12
aa(lp163
I12
aa(lp164
I12
aa(lp165
I12
aa(lp166
I12
aa(lp167
I12
aa(lp168
I12
aa(lp169
I12
aa(lp170
I12
aa(lp171
I12
aa(lp172
I12
aa(lp173
I12
aa(lp174
I12
aa(lp175
I12
aa(lp176
I12
aa(lp177
I12
aa(lp178
I12
aa(lp179
I12
aa(lp180
I12
aa(lp181
I12
aa(lp182
I12
aa(lp183
I12
aa(lp184
I12
aa(lp185
I12
aa(lp186
I12
aaa(lp187
(lp188
I13
aa(lp189
I13
aa(lp190
I13
aa(lp191
I13
aa(lp192
I13
aa(lp193
I13
aa(lp194
I13
aa(lp195
I13
aa(lp196
I13
aa(lp197
I13
aa(lp198
I13
aa(lp199
I13
aa(lp200
I13
aa(lp201
I13
aaa(lp202
(lp203
I16
aa(lp204
I16
aa(lp205
I16
aa(lp206
I16
aa(lp207
I16
aa(lp208
I16
aa(lp209
I16
aa(lp210
I16
aa(lp211
I16
aa(lp212
I16
aa(lp213
I16
aa(lp214
I16
aa(lp215
I16
aa(lp216
I16
aa(lp217
I16
aa(lp218
I16
aa(lp219
I16
aa(lp220
I16
aa(lp221
I16
aa(lp222
I16
aa(lp223
I16
aa(lp224
I16
aa(lp225
I16
aa(lp226
I16
aa(lp227
I16
aa(lp228
I16
aa(lp229
I16
aa(lp230
I16
aa(lp231
I16
aa(lp232
I16
aa(lp233
I16
aa(lp234
I16
aa(lp235
I16
aa(lp236
I16
aa(lp237
I16
aa(lp238
I16
aa(lp239
I16
aa(lp240
I16
aa(lp241
I16
aa(lp242
I16
aa(lp243
I16
aa(lp244
I16
aa(lp245
I16
aa(lp246
I16
aa(lp247
I16
aa(lp248
I16
aa(lp249
I16
aa(lp250
I16
aa(lp251
I16
aa(lp252
I16
aa(lp253
I16
aa(lp254
I16
aa(lp255
I16
aa(lp256
I16
aa(lp257
I16
aa(lp258
I16
aa(lp259
I16
aa(lp260
I16
aa(lp261
I16
aa(lp262
I16
aa(lp263
I16
aa(lp264
I16
aa(lp265
I16
aa(lp266
I16
aa(lp267
I16
aaa(lp268
(lp269
I18
aa(lp270
I18
aa(lp271
I18
aa(lp272
I18
aa(lp273
I18
aa(lp274
I18
aa(lp275
I18
aa(lp276
I18
aa(lp277
I18
aa(lp278
I18
aa(lp279
I18
aa(lp280
I18
aa(lp281
I18
aa(lp282
I18
aa(lp283
I18
aa(lp284
I18
aa(lp285
I18
aa(lp286
I18
aaa(lp287
(lp288
I19
aa(lp289
I19
aa(lp290
I19
aa(lp291
I19
aa(lp292
I19
aa(lp293
I19
aa(lp294
I19
aa(lp295
I19
aa(lp296
I19
aa(lp297
I19
aa(lp298
I19
aa(lp299
I19
aa(lp300
I19
aa(lp301
I19
aa(lp302
I19
aa(lp303
I19
aa(lp304
I19
aa(lp305
I19
aa(lp306
I19
aa(lp307
I19
aa(lp308
I19
aa(lp309
I19
aa(lp310
I19
aa(lp311
I19
aa(lp312
I19
aa(lp313
I19
aa(lp314
I19
aa(lp315
I19
aaa(lp316
(lp317
I20
aa(lp318
I20
aa(lp319
I20
aa(lp320
I20
aa(lp321
I20
aa(lp322
I20
aa(lp323
I20
aa(lp324
I20
aa(lp325
I20
aa(lp326
I20
aa(lp327
I20
aa(lp328
I20
aa(lp329
I20
aa(lp330
I20
aa(lp331
I20
aa(lp332
I20
aa(lp333
I20
aa(lp334
I20
aa(lp335
I20
aa(lp336
I20
aa(lp337
I20
aa(lp338
I20
aa(lp339
I20
aa(lp340
I20
aaa(lp341
(lp342
I22
aa(lp343
I22
aa(lp344
I22
aa(lp345
I22
aa(lp346
I22
aa(lp347
I22
aa(lp348
I22
aa(lp349
I22
aa(lp350
I22
aa(lp351
I22
aa(lp352
I22
aa(lp353
I22
aa(lp354
I22
aa(lp355
I22
aa(lp356
I22
aa(lp357
I22
aa(lp358
I22
aa(lp359
I22
aa(lp360
I22
aa(lp361
I22
aa(lp362
I22
aa(lp363
I22
aa(lp364
I22
aa(lp365
I22
aa(lp366
I22
aa(lp367
I22
aa(lp368
I22
aa(lp369
I22
aa(lp370
I22
aa(lp371
I22
aa(lp372
I22
aa(lp373
I22
aa(lp374
I22
aa(lp375
I22
aa(lp376
I22
aa(lp377
I22
aa(lp378
I22
aa(lp379
I22
aa(lp380
I22
aa(lp381
I22
aa(lp382
I22
aa(lp383
I22
aa(lp384
I22
aa(lp385
I22
aa(lp386
I22
aa(lp387
I22
aa(lp388
I22
aa(lp389
I22
aa(lp390
I22
aa(lp391
I22
aa(lp392
I22
aa(lp393
I22
aa(lp394
I22
aa(lp395
I22
aa(lp396
I22
aa(lp397
I22
aa(lp398
I22
aaa(lp399
(lp400
I24
aa(lp401
I24
aa(lp402
I24
aa(lp403
I24
aa(lp404
I24
aa(lp405
I24
aa(lp406
I24
aa(lp407
I24
aa(lp408
I24
aa(lp409
I24
aa(lp410
I24
aa(lp411
I24
aa(lp412
I24
aa(lp413
I24
aa(lp414
I24
aa(lp415
I24
aa(lp416
I24
aa(lp417
I24
aa(lp418
I24
aa(lp419
I24
aa(lp420
I24
aa(lp421
I24
aa(lp422
I24
aa(lp423
I24
aa(lp424
I24
aa(lp425
I24
aa(lp426
I24
aa(lp427
I24
aa(lp428
I24
aa(lp429
I24
aa(lp430
I24
aa(lp431
I24
aa(lp432
I24
aa(lp433
I24
aa(lp434
I24
aa(lp435
I24
aa(lp436
I24
aa(lp437
I24
aa(lp438
I24
aa(lp439
I24
aa(lp440
I24
aa(lp441
I24
aa(lp442
I24
aa(lp443
I24
aa(lp444
I24
aa(lp445
I24
aa(lp446
I24
aa(lp447
I24
aa(lp448
I24
aa(lp449
I24
aa(lp450
I24
aa(lp451
I24
aa(lp452
I24
aa(lp453
I24
aa(lp454
I24
aa(lp455
I24
aa(lp456
I24
aa(lp457
I24
aa(lp458
I24
aa(lp459
I24
aa(lp460
I24
aa(lp461
I24
aa(lp462
I24
aa(lp463
I24
aa(lp464
I24
aa(lp465
I24
aa(lp466
I24
aa(lp467
I24
aa(lp468
I24
aa(lp469
I24
aa(lp470
I24
aa(lp471
I24
aaa(lp472
(lp473
I26
aa(lp474
I26
aa(lp475
I26
aa(lp476
I26
aa(lp477
I26
aa(lp478
I26
aa(lp479
I26
aa(lp480
I26
aa(lp481
I26
aa(lp482
I26
aa(lp483
I26
aa(lp484
I26
aa(lp485
I26
aa(lp486
I26
aa(lp487
I26
aa(lp488
I26
aa(lp489
I26
aaa(lp490
(lp491
I27
aa(lp492
I27
aa(lp493
I27
aa(lp494
I27
aa(lp495
I27
aa(lp496
I27
aa(lp497
I27
aa(lp498
I27
aa(lp499
I27
aa(lp500
I27
aa(lp501
I27
aa(lp502
I27
aa(lp503
I27
aa(lp504
I27
aa(lp505
I27
aa(lp506
I27
aa(lp507
I27
aa(lp508
I27
aa(lp509
I27
aa(lp510
I27
aa(lp511
I27
aa(lp512
I27
aa(lp513
I27
aa(lp514
I27
aa(lp515
I27
aa(lp516
I27
aa(lp517
I27
aa(lp518
I27
aa(lp519
I27
aa(lp520
I27
aa(lp521
I27
aa(lp522
I27
aa(lp523
I27
aa(lp524
I27
aa(lp525
I27
aa(lp526
I27
aa(lp527
I27
aa(lp528
I27
aa(lp529
I27
aa(lp530
I27
aa(lp531
I27
aa(lp532
I27
aa(lp533
I27
aa(lp534
I27
aa(lp535
I27
aa(lp536
I27
aa(lp537
I27
aa(lp538
I27
aa(lp539
I27
aa(lp540
I27
aa(lp541
I27
aa(lp542
I27
aa(lp543
I27
aa(lp544
I27
aa(lp545
I27
aa(lp546
I27
aa(lp547
I27
aa(lp548
I27
aa(lp549
I27
aa(lp550
I27
aa(lp551
I27
aa(lp552
I27
aa(lp553
I27
aa(lp554
I27
aa(lp555
I27
aa(lp556
I27
aa(lp557
I27
aa(lp558
I27
aa(lp559
I27
aa(lp560
I27
aa(lp561
I27
aa(lp562
I27
aa(lp563
I27
aa(lp564
I27
aa(lp565
I27
aa(lp566
I27
aa(lp567
I27
aa(lp568
I27
aa(lp569
I27
aa(lp570
I27
aa(lp571
I27
aa(lp572
I27
aa(lp573
I27
aa(lp574
I27
aa(lp575
I27
aa(lp576
I27
aa(lp577
I27
aa(lp578
I27
aa(lp579
I27
aa(lp580
I27
aa(lp581
I27
aaa(lp582
(lp583
I28
aa(lp584
I28
aa(lp585
I28
aa(lp586
I28
aa(lp587
I28
aa(lp588
I28
aa(lp589
I28
aa(lp590
I28
aa(lp591
I28
aa(lp592
I28
aa(lp593
I28
aa(lp594
I28
aa(lp595
I28
aa(lp596
I28
aa(lp597
I28
aa(lp598
I28
aa(lp599
I28
aa(lp600
I28
aa(lp601
I28
aa(lp602
I28
aa(lp603
I28
aa(lp604
I28
aa(lp605
I28
aa(lp606
I28
aa(lp607
I28
aa(lp608
I28
aa(lp609
I28
aa(lp610
I28
aa(lp611
I28
aa(lp612
I28
aa(lp613
I28
aa(lp614
I28
aa(lp615
I28
aa(lp616
I28
aa(lp617
I28
aa(lp618
I28
aa(lp619
I28
aa(lp620
I28
aa(lp621
I28
aa(lp622
I28
aa(lp623
I28
aa(lp624
I28
aa(lp625
I28
aa(lp626
I28
aa(lp627
I28
aa(lp628
I28
aa(lp629
I28
aa(lp630
I28
aa(lp631
I28
aaa(lp632
(lp633
I37
aa(lp634
I37
aa(lp635
I37
aa(lp636
I37
aa(lp637
I37
aa(lp638
I37
aa(lp639
I37
aa(lp640
I37
aa(lp641
I37
aa(lp642
I37
aa(lp643
I37
aa(lp644
I37
aa(lp645
I37
aa(lp646
I37
aa(lp647
I37
aa(lp648
I37
aa(lp649
I37
aa(lp650
I37
aa(lp651
I37
aa(lp652
I37
aa(lp653
I37
aa(lp654
I37
aa(lp655
I37
aa(lp656
I37
aa(lp657
I37
aa(lp658
I37
aa(lp659
I37
aa(lp660
I37
aa(lp661
I37
aa(lp662
I37
aa(lp663
I37
aa(lp664
I37
aa(lp665
I37
aa(lp666
I37
aa(lp667
I37
aa(lp668
I37
aa(lp669
I37
aa(lp670
I37
aa(lp671
I37
aa(lp672
I37
aa(lp673
I37
aa(lp674
I37
aa(lp675
I37
aa(lp676
I37
aa(lp677
I37
aa(lp678
I37
aa(lp679
I37
aa(lp680
I37
aa(lp681
I37
aa(lp682
I37
aa(lp683
I37
aa(lp684
I37
aa(lp685
I37
aa(lp686
I37
aa(lp687
I37
aa(lp688
I37
aa(lp689
I37
aa(lp690
I37
aa(lp691
I37
aa(lp692
I37
aa(lp693
I37
aa(lp694
I37
aa(lp695
I37
aa(lp696
I37
aa(lp697
I37
aa(lp698
I37
aa(lp699
I37
aaa.