(lp1
(lp2
(lp3
I2
aa(lp4
I2
aa(lp5
I2
aa(lp6
I2
aa(lp7
I2
aa(lp8
I2
aa(lp9
I2
aa(lp10
I2
aa(lp11
I2
aa(lp12
I2
aa(lp13
I2
aa(lp14
I2
aa(lp15
I2
aa(lp16
I2
aa(lp17
I2
aa(lp18
I2
aa(lp19
I2
aa(lp20
I2
aaa(lp21
(lp22
I3
aa(lp23
I3
aa(lp24
I3
aa(lp25
I3
aa(lp26
I3
aa(lp27
I3
aa(lp28
I3
aa(lp29
I3
aa(lp30
I3
aa(lp31
I3
aaa(lp32
(lp33
I6
aa(lp34
I6
aa(lp35
I6
aa(lp36
I6
aa(lp37
I6
aa(lp38
I6
aa(lp39
I6
aa(lp40
I6
aa(lp41
I6
aa(lp42
I6
aa(lp43
I6
aa(lp44
I6
aa(lp45
I6
aa(lp46
I6
aa(lp47
I6
aa(lp48
I6
aa(lp49
I6
aa(lp50
I6
aa(lp51
I6
aa(lp52
I6
aaa.