(lp1
(lp2
(lp3
I2
aa(lp4
I2
aa(lp5
I2
aa(lp6
I2
aa(lp7
I2
aa(lp8
I2
aa(lp9
I2
aa(lp10
I2
aa(lp11
I2
aa(lp12
I2
aa(lp13
I2
aa(lp14
I2
aa(lp15
I2
aa(lp16
I2
aa(lp17
I2
aa(lp18
I2
aa(lp19
I2
aa(lp20
I2
aaa.