(lp1
(lp2
(lp3
I1
aa(lp4
I1
aa(lp5
I1
aa(lp6
I1
aa(lp7
I1
aa(lp8
I1
aa(lp9
I1
aa(lp10
I1
aa(lp11
I1
aa(lp12
I1
aa(lp13
I1
aa(lp14
I1
aa(lp15
I1
aa(lp16
I1
aa(lp17
I1
aa(lp18
I1
aa(lp19
I1
aa(lp20
I1
aa(lp21
I1
aa(lp22
I1
aa(lp23
I1
aa(lp24
I1
aa(lp25
I1
aa(lp26
I1
aa(lp27
I1
aa(lp28
I1
aa(lp29
I1
aa(lp30
I1
aa(lp31
I1
aa(lp32
I1
aa(lp33
I1
aa(lp34
I1
aa(lp35
I1
aa(lp36
I1
aa(lp37
I1
aa(lp38
I1
aa(lp39
I1
aa(lp40
I1
aa(lp41
I1
aa(lp42
I1
aa(lp43
I1
aa(lp44
I1
aa(lp45
I1
aa(lp46
I1
aa(lp47
I1
aa(lp48
I1
aa(lp49
I1
aa(lp50
I1
aa(lp51
I1
aa(lp52
I1
aa(lp53
I1
aa(lp54
I1
aa(lp55
I1
aa(lp56
I1
aa(lp57
I1
aa(lp58
I1
aa(lp59
I1
aa(lp60
I1
aa(lp61
I1
aa(lp62
I1
aa(lp63
I1
aa(lp64
I1
aa(lp65
I1
aa(lp66
I1
aa(lp67
I1
aa(lp68
I1
aa(lp69
I1
aa(lp70
I1
aa(lp71
I1
aaa(lp72
(lp73
I4
aa(lp74
I4
aa(lp75
I4
aa(lp76
I4
aa(lp77
I4
aa(lp78
I4
aa(lp79
I4
aa(lp80
I4
aa(lp81
I4
aa(lp82
I4
aa(lp83
I4
aa(lp84
I4
aa(lp85
I4
aa(lp86
I4
aa(lp87
I4
aa(lp88
I4
aa(lp89
I4
aa(lp90
I4
aaa(lp91
(lp92
I5
aa(lp93
I5
aa(lp94
I5
aa(lp95
I5
aa(lp96
I5
aa(lp97
I5
aa(lp98
I5
aa(lp99
I5
aa(lp100
I5
aa(lp101
I5
aa(lp102
I5
aa(lp103
I5
aa(lp104
I5
aa(lp105
I5
aa(lp106
I5
aa(lp107
I5
aa(lp108
I5
aa(lp109
I5
aa(lp110
I5
aa(lp111
I5
aa(lp112
I5
aa(lp113
I5
aa(lp114
I5
aa(lp115
I5
aa(lp116
I5
aa(lp117
I5
aa(lp118
I5
aa(lp119
I5
aa(lp120
I5
aa(lp121
I5
aa(lp122
I5
aa(lp123
I5
aa(lp124
I5
aa(lp125
I5
aa(lp126
I5
aa(lp127
I5
aa(lp128
I5
aa(lp129
I5
aa(lp130
I5
aa(lp131
I5
aa(lp132
I5
aa(lp133
I5
aa(lp134
I5
aa(lp135
I5
aa(lp136
I5
aa(lp137
I5
aa(lp138
I5
aa(lp139
I5
aa(lp140
I5
aa(lp141
I5
aa(lp142
I5
aa(lp143
I5
aa(lp144
I5
aa(lp145
I5
aa(lp146
I5
aa(lp147
I5
aa(lp148
I5
aa(lp149
I5
aa(lp150
I5
aa(lp151
I5
aa(lp152
I5
aa(lp153
I5
aa(lp154
I5
aa(lp155
I5
aa(lp156
I5
aa(lp157
I5
aa(lp158
I5
aa(lp159
I5
aa(lp160
I5
aa(lp161
I5
aa(lp162
I5
aa(lp163
I5
aa(lp164
I5
aa(lp165
I5
aa(lp166
I5
aa(lp167
I5
aa(lp168
I5
aa(lp169
I5
aa(lp170
I5
aaa(lp171
(lp172
I10
aa(lp173
I10
aa(lp174
I10
aa(lp175
I10
aa(lp176
I10
aa(lp177
I10
aa(lp178
I10
aa(lp179
I10
aa(lp180
I10
aa(lp181
I10
aa(lp182
I10
aa(lp183
I10
aa(lp184
I10
aa(lp185
I10
aa(lp186
I10
aa(lp187
I10
aa(lp188
I10
aa(lp189
I10
aa(lp190
I10
aa(lp191
I10
aa(lp192
I10
aa(lp193
I10
aa(lp194
I10
aa(lp195
I10
aa(lp196
I10
aa(lp197
I10
aa(lp198
I10
aa(lp199
I10
aa(lp200
I10
aa(lp201
I10
aa(lp202
I10
aa(lp203
I10
aa(lp204
I10
aa(lp205
I10
aa(lp206
I10
aa(lp207
I10
aa(lp208
I10
aa(lp209
I10
aa(lp210
I10
aa(lp211
I10
aa(lp212
I10
aa(lp213
I10
aa(lp214
I10
aa(lp215
I10
aa(lp216
I10
aa(lp217
I10
aa(lp218
I10
aa(lp219
I10
aa(lp220
I10
aa(lp221
I10
aa(lp222
I10
aa(lp223
I10
aa(lp224
I10
aa(lp225
I10
aa(lp226
I10
aa(lp227
I10
aa(lp228
I10
aa(lp229
I10
aa(lp230
I10
aa(lp231
I10
aa(lp232
I10
aa(lp233
I10
aa(lp234
I10
aa(lp235
I10
aa(lp236
I10
aa(lp237
I10
aa(lp238
I10
aa(lp239
I10
aa(lp240
I10
aa(lp241
I10
aa(lp242
I10
aa(lp243
I10
aa(lp244
I10
aa(lp245
I10
aa(lp246
I10
aa(lp247
I10
aa(lp248
I10
aaa(lp249
(lp250
I11
aa(lp251
I11
aa(lp252
I11
aa(lp253
I11
aa(lp254
I11
aa(lp255
I11
aa(lp256
I11
aa(lp257
I11
aa(lp258
I11
aa(lp259
I11
aaa(lp260
(lp261
I12
aa(lp262
I12
aa(lp263
I12
aa(lp264
I12
aa(lp265
I12
aa(lp266
I12
aa(lp267
I12
aa(lp268
I12
aa(lp269
I12
aa(lp270
I12
aaa(lp271
(lp272
I13
aa(lp273
I13
aa(lp274
I13
aa(lp275
I13
aa(lp276
I13
aa(lp277
I13
aa(lp278
I13
aa(lp279
I13
aa(lp280
I13
aa(lp281
I13
aa(lp282
I13
aa(lp283
I13
aa(lp284
I13
aa(lp285
I13
aa(lp286
I13
aa(lp287
I13
aa(lp288
I13
aa(lp289
I13
aa(lp290
I13
aa(lp291
I13
aa(lp292
I13
aa(lp293
I13
aa(lp294
I13
aa(lp295
I13
aa(lp296
I13
aa(lp297
I13
aa(lp298
I13
aa(lp299
I13
aa(lp300
I13
aa(lp301
I13
aa(lp302
I13
aa(lp303
I13
aa(lp304
I13
aa(lp305
I13
aaa(lp306
(lp307
I14
aa(lp308
I14
aa(lp309
I14
aa(lp310
I14
aa(lp311
I14
aa(lp312
I14
aa(lp313
I14
aa(lp314
I14
aa(lp315
I14
aa(lp316
I14
aa(lp317
I14
aa(lp318
I14
aa(lp319
I14
aa(lp320
I14
aa(lp321
I14
aa(lp322
I14
aa(lp323
I14
aa(lp324
I14
aa(lp325
I14
aa(lp326
I14
aa(lp327
I14
aa(lp328
I14
aa(lp329
I14
aa(lp330
I14
aa(lp331
I14
aa(lp332
I14
aa(lp333
I14
aa(lp334
I14
aa(lp335
I14
aa(lp336
I14
aa(lp337
I14
aa(lp338
I14
aa(lp339
I14
aa(lp340
I14
aa(lp341
I14
aa(lp342
I14
aa(lp343
I14
aa(lp344
I14
aa(lp345
I14
aa(lp346
I14
aa(lp347
I14
aa(lp348
I14
aa(lp349
I14
aa(lp350
I14
aa(lp351
I14
aa(lp352
I14
aa(lp353
I14
aa(lp354
I14
aa(lp355
I14
aa(lp356
I14
aa(lp357
I14
aa(lp358
I14
aa(lp359
I14
aaa(lp360
(lp361
I15
aa(lp362
I15
aa(lp363
I15
aa(lp364
I15
aa(lp365
I15
aa(lp366
I15
aa(lp367
I15
aa(lp368
I15
aa(lp369
I15
aa(lp370
I15
aa(lp371
I15
aa(lp372
I15
aa(lp373
I15
aa(lp374
I15
aa(lp375
I15
aa(lp376
I15
aa(lp377
I15
aa(lp378
I15
aa(lp379
I15
aa(lp380
I15
aa(lp381
I15
aa(lp382
I15
aa(lp383
I15
aa(lp384
I15
aa(lp385
I15
aa(lp386
I15
aa(lp387
I15
aa(lp388
I15
aa(lp389
I15
aa(lp390
I15
aa(lp391
I15
aa(lp392
I15
aa(lp393
I15
aa(lp394
I15
aa(lp395
I15
aa(lp396
I15
aa(lp397
I15
aa(lp398
I15
aa(lp399
I15
aa(lp400
I15
aa(lp401
I15
aa(lp402
I15
aa(lp403
I15
aa(lp404
I15
aa(lp405
I15
aa(lp406
I15
aa(lp407
I15
aa(lp408
I15
aa(lp409
I15
aa(lp410
I15
aa(lp411
I15
aa(lp412
I15
aa(lp413
I15
aa(lp414
I15
aa(lp415
I15
aa(lp416
I15
aa(lp417
I15
aa(lp418
I15
aa(lp419
I15
aa(lp420
I15
aa(lp421
I15
aa(lp422
I15
aa(lp423
I15
aa(lp424
I15
aa(lp425
I15
aa(lp426
I15
aa(lp427
I15
aa(lp428
I15
aaa(lp429
(lp430
I20
aa(lp431
I20
aa(lp432
I20
aa(lp433
I20
aa(lp434
I20
aa(lp435
I20
aa(lp436
I20
aa(lp437
I20
aa(lp438
I20
aa(lp439
I20
aa(lp440
I20
aa(lp441
I20
aaa(lp442
(lp443
I23
aa(lp444
I23
aa(lp445
I23
aa(lp446
I23
aa(lp447
I23
aa(lp448
I23
aa(lp449
I23
aa(lp450
I23
aa(lp451
I23
aa(lp452
I23
aa(lp453
I23
aa(lp454
I23
aa(lp455
I23
aa(lp456
I23
aa(lp457
I23
aa(lp458
I23
aa(lp459
I23
aa(lp460
I23
aa(lp461
I23
aa(lp462
I23
aa(lp463
I23
aa(lp464
I23
aa(lp465
I23
aa(lp466
I23
aa(lp467
I23
aa(lp468
I23
aa(lp469
I23
aa(lp470
I23
aa(lp471
I23
aa(lp472
I23
aa(lp473
I23
aa(lp474
I23
aa(lp475
I23
aa(lp476
I23
aa(lp477
I23
aa(lp478
I23
aa(lp479
I23
aa(lp480
I23
aa(lp481
I23
aa(lp482
I23
aa(lp483
I23
aa(lp484
I23
aa(lp485
I23
aa(lp486
I23
aa(lp487
I23
aa(lp488
I23
aa(lp489
I23
aa(lp490
I23
aa(lp491
I23
aa(lp492
I23
aa(lp493
I23
aa(lp494
I23
aa(lp495
I23
aa(lp496
I23
aaa(lp497
(lp498
I25
aa(lp499
I25
aa(lp500
I25
aa(lp501
I25
aa(lp502
I25
aa(lp503
I25
aa(lp504
I25
aa(lp505
I25
aa(lp506
I25
aa(lp507
I25
aa(lp508
I25
aa(lp509
I25
aa(lp510
I25
aa(lp511
I25
aa(lp512
I25
aa(lp513
I25
aa(lp514
I25
aa(lp515
I25
aa(lp516
I25
aa(lp517
I25
aa(lp518
I25
aa(lp519
I25
aa(lp520
I25
aa(lp521
I25
aa(lp522
I25
aa(lp523
I25
aa(lp524
I25
aa(lp525
I25
aa(lp526
I25
aa(lp527
I25
aa(lp528
I25
aa(lp529
I25
aa(lp530
I25
aa(lp531
I25
aa(lp532
I25
aa(lp533
I25
aa(lp534
I25
aa(lp535
I25
aa(lp536
I25
aa(lp537
I25
aa(lp538
I25
aa(lp539
I25
aa(lp540
I25
aa(lp541
I25
aa(lp542
I25
aa(lp543
I25
aa(lp544
I25
aa(lp545
I25
aa(lp546
I25
aa(lp547
I25
aa(lp548
I25
aa(lp549
I25
aa(lp550
I25
aa(lp551
I25
aa(lp552
I25
aa(lp553
I25
aa(lp554
I25
aa(lp555
I25
aa(lp556
I25
aa(lp557
I25
aa(lp558
I25
aa(lp559
I25
aa(lp560
I25
aa(lp561
I25
aa(lp562
I25
aa(lp563
I25
aa(lp564
I25
aa(lp565
I25
aa(lp566
I25
aa(lp567
I25
aa(lp568
I25
aa(lp569
I25
aa(lp570
I25
aa(lp571
I25
aa(lp572
I25
aa(lp573
I25
aa(lp574
I25
aa(lp575
I25
aa(lp576
I25
aa(lp577
I25
aa(lp578
I25
aa(lp579
I25
aa(lp580
I25
aa(lp581
I25
aaa(lp582
(lp583
I26
aa(lp584
I26
aa(lp585
I26
aa(lp586
I26
aa(lp587
I26
aa(lp588
I26
aa(lp589
I26
aa(lp590
I26
aa(lp591
I26
aa(lp592
I26
aa(lp593
I26
aa(lp594
I26
aa(lp595
I26
aa(lp596
I26
aa(lp597
I26
aa(lp598
I26
aa(lp599
I26
aa(lp600
I26
aa(lp601
I26
aa(lp602
I26
aa(lp603
I26
aa(lp604
I26
aa(lp605
I26
aa(lp606
I26
aa(lp607
I26
aa(lp608
I26
aa(lp609
I26
aa(lp610
I26
aa(lp611
I26
aa(lp612
I26
aa(lp613
I26
aa(lp614
I26
aa(lp615
I26
aa(lp616
I26
aa(lp617
I26
aa(lp618
I26
aa(lp619
I26
aa(lp620
I26
aa(lp621
I26
aa(lp622
I26
aa(lp623
I26
aa(lp624
I26
aa(lp625
I26
aa(lp626
I26
aa(lp627
I26
aa(lp628
I26
aa(lp629
I26
aa(lp630
I26
aa(lp631
I26
aa(lp632
I26
aa(lp633
I26
aa(lp634
I26
aa(lp635
I26
aa(lp636
I26
aa(lp637
I26
aa(lp638
I26
aa(lp639
I26
aa(lp640
I26
aa(lp641
I26
aa(lp642
I26
aa(lp643
I26
aa(lp644
I26
aa(lp645
I26
aa(lp646
I26
aa(lp647
I26
aa(lp648
I26
aa(lp649
I26
aa(lp650
I26
aa(lp651
I26
aa(lp652
I26
aa(lp653
I26
aa(lp654
I26
aa(lp655
I26
aa(lp656
I26
aa(lp657
I26
aa(lp658
I26
aa(lp659
I26
aa(lp660
I26
aa(lp661
I26
aa(lp662
I26
aa(lp663
I26
aa(lp664
I26
aa(lp665
I26
aa(lp666
I26
aa(lp667
I26
aa(lp668
I26
aaa(lp669
(lp670
I28
aa(lp671
I28
aa(lp672
I28
aa(lp673
I28
aa(lp674
I28
aa(lp675
I28
aa(lp676
I28
aa(lp677
I28
aa(lp678
I28
aa(lp679
I28
aa(lp680
I28
aa(lp681
I28
aa(lp682
I28
aa(lp683
I28
aa(lp684
I28
aa(lp685
I28
aa(lp686
I28
aa(lp687
I28
aa(lp688
I28
aa(lp689
I28
aa(lp690
I28
aa(lp691
I28
aa(lp692
I28
aa(lp693
I28
aa(lp694
I28
aa(lp695
I28
aa(lp696
I28
aa(lp697
I28
aa(lp698
I28
aa(lp699
I28
aa(lp700
I28
aa(lp701
I28
aa(lp702
I28
aa(lp703
I28
aa(lp704
I28
aa(lp705
I28
aa(lp706
I28
aa(lp707
I28
aa(lp708
I28
aa(lp709
I28
aa(lp710
I28
aa(lp711
I28
aa(lp712
I28
aa(lp713
I28
aa(lp714
I28
aa(lp715
I28
aa(lp716
I28
aa(lp717
I28
aa(lp718
I28
aa(lp719
I28
aa(lp720
I28
aa(lp721
I28
aa(lp722
I28
aa(lp723
I28
aa(lp724
I28
aa(lp725
I28
aa(lp726
I28
aa(lp727
I28
aa(lp728
I28
aaa(lp729
(lp730
I31
aa(lp731
I31
aa(lp732
I31
aa(lp733
I31
aa(lp734
I31
aa(lp735
I31
aa(lp736
I31
aa(lp737
I31
aa(lp738
I31
aa(lp739
I31
aa(lp740
I31
aa(lp741
I31
aa(lp742
I31
aa(lp743
I31
aa(lp744
I31
aa(lp745
I31
aaa(lp746
(lp747
I32
aa(lp748
I32
aa(lp749
I32
aa(lp750
I32
aa(lp751
I32
aa(lp752
I32
aa(lp753
I32
aa(lp754
I32
aa(lp755
I32
aa(lp756
I32
aa(lp757
I32
aa(lp758
I32
aa(lp759
I32
aa(lp760
I32
aa(lp761
I32
aa(lp762
I32
aa(lp763
I32
aa(lp764
I32
aa(lp765
I32
aa(lp766
I32
aa(lp767
I32
aa(lp768
I32
aa(lp769
I32
aa(lp770
I32
aa(lp771
I32
aa(lp772
I32
aa(lp773
I32
aa(lp774
I32
aa(lp775
I32
aa(lp776
I32
aa(lp777
I32
aa(lp778
I32
aa(lp779
I32
aa(lp780
I32
aa(lp781
I32
aa(lp782
I32
aa(lp783
I32
aa(lp784
I32
aa(lp785
I32
aa(lp786
I32
aa(lp787
I32
aa(lp788
I32
aa(lp789
I32
aa(lp790
I32
aa(lp791
I32
aa(lp792
I32
aa(lp793
I32
aa(lp794
I32
aa(lp795
I32
aa(lp796
I32
aa(lp797
I32
aa(lp798
I32
aa(lp799
I32
aa(lp800
I32
aa(lp801
I32
aa(lp802
I32
aa(lp803
I32
aa(lp804
I32
aa(lp805
I32
aa(lp806
I32
aa(lp807
I32
aa(lp808
I32
aa(lp809
I32
aa(lp810
I32
aa(lp811
I32
aa(lp812
I32
aa(lp813
I32
aa(lp814
I32
aa(lp815
I32
aa(lp816
I32
aa(lp817
I32
aa(lp818
I32
aa(lp819
I32
aa(lp820
I32
aa(lp821
I32
aa(lp822
I32
aa(lp823
I32
aa(lp824
I32
aa(lp825
I32
aa(lp826
I32
aa(lp827
I32
aa(lp828
I32
aa(lp829
I32
aa(lp830
I32
aa(lp831
I32
aa(lp832
I32
aa(lp833
I32
aa(lp834
I32
aa(lp835
I32
aa(lp836
I32
aa(lp837
I32
aa(lp838
I32
aa(lp839
I32
aa(lp840
I32
aaa(lp841
(lp842
I34
aa(lp843
I34
aa(lp844
I34
aa(lp845
I34
aa(lp846
I34
aa(lp847
I34
aa(lp848
I34
aa(lp849
I34
aa(lp850
I34
aa(lp851
I34
aa(lp852
I34
aa(lp853
I34
aa(lp854
I34
aa(lp855
I34
aa(lp856
I34
aa(lp857
I34
aa(lp858
I34
aa(lp859
I34
aa(lp860
I34
aa(lp861
I34
aa(lp862
I34
aa(lp863
I34
aa(lp864
I34
aa(lp865
I34
aa(lp866
I34
aa(lp867
I34
aa(lp868
I34
aa(lp869
I34
aa(lp870
I34
aa(lp871
I34
aa(lp872
I34
aa(lp873
I34
aa(lp874
I34
aa(lp875
I34
aa(lp876
I34
aa(lp877
I34
aa(lp878
I34
aa(lp879
I34
aa(lp880
I34
aa(lp881
I34
aa(lp882
I34
aa(lp883
I34
aa(lp884
I34
aa(lp885
I34
aa(lp886
I34
aa(lp887
I34
aa(lp888
I34
aaa(lp889
(lp890
I35
aa(lp891
I35
aa(lp892
I35
aa(lp893
I35
aa(lp894
I35
aa(lp895
I35
aa(lp896
I35
aa(lp897
I35
aa(lp898
I35
aa(lp899
I35
aa(lp900
I35
aa(lp901
I35
aa(lp902
I35
aa(lp903
I35
aa(lp904
I35
aa(lp905
I35
aa(lp906
I35
aa(lp907
I35
aa(lp908
I35
aa(lp909
I35
aa(lp910
I35
aa(lp911
I35
aa(lp912
I35
aa(lp913
I35
aa(lp914
I35
aa(lp915
I35
aa(lp916
I35
aa(lp917
I35
aa(lp918
I35
aa(lp919
I35
aa(lp920
I35
aa(lp921
I35
aa(lp922
I35
aa(lp923
I35
aa(lp924
I35
aa(lp925
I35
aaa(lp926
(lp927
I36
aa(lp928
I36
aa(lp929
I36
aa(lp930
I36
aa(lp931
I36
aa(lp932
I36
aa(lp933
I36
aa(lp934
I36
aa(lp935
I36
aa(lp936
I36
aa(lp937
I36
aa(lp938
I36
aa(lp939
I36
aa(lp940
I36
aa(lp941
I36
aa(lp942
I36
aa(lp943
I36
aa(lp944
I36
aa(lp945
I36
aa(lp946
I36
aa(lp947
I36
aa(lp948
I36
aa(lp949
I36
aa(lp950
I36
aa(lp951
I36
aa(lp952
I36
aa(lp953
I36
aaa(lp954
(lp955
I37
aa(lp956
I37
aa(lp957
I37
aa(lp958
I37
aa(lp959
I37
aa(lp960
I37
aa(lp961
I37
aa(lp962
I37
aa(lp963
I37
aa(lp964
I37
aa(lp965
I37
aa(lp966
I37
aa(lp967
I37
aa(lp968
I37
aa(lp969
I37
aa(lp970
I37
aa(lp971
I37
aa(lp972
I37
aa(lp973
I37
aa(lp974
I37
aa(lp975
I37
aa(lp976
I37
aa(lp977
I37
aa(lp978
I37
aa(lp979
I37
aa(lp980
I37
aa(lp981
I37
aa(lp982
I37
aa(lp983
I37
aa(lp984
I37
aa(lp985
I37
aa(lp986
I37
aa(lp987
I37
aa(lp988
I37
aa(lp989
I37
aa(lp990
I37
aa(lp991
I37
aa(lp992
I37
aa(lp993
I37
aa(lp994
I37
aa(lp995
I37
aa(lp996
I37
aa(lp997
I37
aa(lp998
I37
aa(lp999
I37
aa(lp1000
I37
aa(lp1001
I37
aa(lp1002
I37
aa(lp1003
I37
aaa(lp1004
(lp1005
I38
aa(lp1006
I38
aa(lp1007
I38
aa(lp1008
I38
aa(lp1009
I38
aa(lp1010
I38
aa(lp1011
I38
aa(lp1012
I38
aa(lp1013
I38
aa(lp1014
I38
aa(lp1015
I38
aa(lp1016
I38
aa(lp1017
I38
aa(lp1018
I38
aa(lp1019
I38
aa(lp1020
I38
aa(lp1021
I38
aa(lp1022
I38
aa(lp1023
I38
aa(lp1024
I38
aa(lp1025
I38
aa(lp1026
I38
aa(lp1027
I38
aa(lp1028
I38
aa(lp1029
I38
aa(lp1030
I38
aa(lp1031
I38
aa(lp1032
I38
aaa(lp1033
(lp1034
I40
aa(lp1035
I40
aa(lp1036
I40
aa(lp1037
I40
aa(lp1038
I40
aa(lp1039
I40
aa(lp1040
I40
aa(lp1041
I40
aa(lp1042
I40
aa(lp1043
I40
aa(lp1044
I40
aa(lp1045
I40
aaa(lp1046
(lp1047
I41
aa(lp1048
I41
aa(lp1049
I41
aa(lp1050
I41
aa(lp1051
I41
aa(lp1052
I41
aa(lp1053
I41
aa(lp1054
I41
aa(lp1055
I41
aa(lp1056
I41
aa(lp1057
I41
aa(lp1058
I41
aa(lp1059
I41
aa(lp1060
I41
aa(lp1061
I41
aa(lp1062
I41
aa(lp1063
I41
aa(lp1064
I41
aa(lp1065
I41
aa(lp1066
I41
aa(lp1067
I41
aa(lp1068
I41
aa(lp1069
I41
aa(lp1070
I41
aa(lp1071
I41
aa(lp1072
I41
aa(lp1073
I41
aa(lp1074
I41
aa(lp1075
I41
aa(lp1076
I41
aa(lp1077
I41
aa(lp1078
I41
aa(lp1079
I41
aa(lp1080
I41
aaa(lp1081
(lp1082
I44
aa(lp1083
I44
aa(lp1084
I44
aa(lp1085
I44
aa(lp1086
I44
aa(lp1087
I44
aa(lp1088
I44
aa(lp1089
I44
aa(lp1090
I44
aa(lp1091
I44
aa(lp1092
I44
aa(lp1093
I44
aa(lp1094
I44
aa(lp1095
I44
aa(lp1096
I44
aa(lp1097
I44
aa(lp1098
I44
aaa(lp1099
(lp1100
I45
aa(lp1101
I45
aa(lp1102
I45
aa(lp1103
I45
aa(lp1104
I45
aa(lp1105
I45
aa(lp1106
I45
aa(lp1107
I45
aa(lp1108
I45
aa(lp1109
I45
aa(lp1110
I45
aa(lp1111
I45
aa(lp1112
I45
aa(lp1113
I45
aa(lp1114
I45
aaa(lp1115
(lp1116
I49
aa(lp1117
I49
aa(lp1118
I49
aa(lp1119
I49
aa(lp1120
I49
aa(lp1121
I49
aa(lp1122
I49
aa(lp1123
I49
aa(lp1124
I49
aa(lp1125
I49
aa(lp1126
I49
aa(lp1127
I49
aaa(lp1128
(lp1129
I50
aa(lp1130
I50
aa(lp1131
I50
aa(lp1132
I50
aa(lp1133
I50
aa(lp1134
I50
aa(lp1135
I50
aa(lp1136
I50
aa(lp1137
I50
aa(lp1138
I50
aa(lp1139
I50
aa(lp1140
I50
aa(lp1141
I50
aa(lp1142
I50
aa(lp1143
I50
aa(lp1144
I50
aa(lp1145
I50
aa(lp1146
I50
aa(lp1147
I50
aa(lp1148
I50
aa(lp1149
I50
aa(lp1150
I50
aa(lp1151
I50
aa(lp1152
I50
aa(lp1153
I50
aa(lp1154
I50
aa(lp1155
I50
aa(lp1156
I50
aa(lp1157
I50
aa(lp1158
I50
aa(lp1159
I50
aa(lp1160
I50
aa(lp1161
I50
aa(lp1162
I50
aa(lp1163
I50
aa(lp1164
I50
aa(lp1165
I50
aa(lp1166
I50
aa(lp1167
I50
aa(lp1168
I50
aaa(lp1169
(lp1170
I51
aa(lp1171
I51
aa(lp1172
I51
aa(lp1173
I51
aa(lp1174
I51
aa(lp1175
I51
aa(lp1176
I51
aa(lp1177
I51
aa(lp1178
I51
aa(lp1179
I51
aa(lp1180
I51
aa(lp1181
I51
aa(lp1182
I51
aa(lp1183
I51
aa(lp1184
I51
aa(lp1185
I51
aa(lp1186
I51
aa(lp1187
I51
aa(lp1188
I51
aa(lp1189
I51
aa(lp1190
I51
aaa(lp1191
(lp1192
I53
aa(lp1193
I53
aa(lp1194
I53
aa(lp1195
I53
aa(lp1196
I53
aa(lp1197
I53
aa(lp1198
I53
aa(lp1199
I53
aa(lp1200
I53
aa(lp1201
I53
aa(lp1202
I53
aa(lp1203
I53
aa(lp1204
I53
aa(lp1205
I53
aa(lp1206
I53
aa(lp1207
I53
aa(lp1208
I53
aa(lp1209
I53
aa(lp1210
I53
aa(lp1211
I53
aa(lp1212
I53
aa(lp1213
I53
aa(lp1214
I53
aa(lp1215
I53
aa(lp1216
I53
aa(lp1217
I53
aa(lp1218
I53
aa(lp1219
I53
aa(lp1220
I53
aa(lp1221
I53
aa(lp1222
I53
aa(lp1223
I53
aa(lp1224
I53
aa(lp1225
I53
aa(lp1226
I53
aa(lp1227
I53
aa(lp1228
I53
aa(lp1229
I53
aa(lp1230
I53
aa(lp1231
I53
aa(lp1232
I53
aa(lp1233
I53
aa(lp1234
I53
aa(lp1235
I53
aa(lp1236
I53
aa(lp1237
I53
aa(lp1238
I53
aa(lp1239
I53
aa(lp1240
I53
aa(lp1241
I53
aa(lp1242
I53
aa(lp1243
I53
aa(lp1244
I53
aa(lp1245
I53
aa(lp1246
I53
aa(lp1247
I53
aa(lp1248
I53
aa(lp1249
I53
aa(lp1250
I53
aa(lp1251
I53
aa(lp1252
I53
aa(lp1253
I53
aa(lp1254
I53
aa(lp1255
I53
aa(lp1256
I53
aaa.