(lp1
(lp2
(lp3
I2
aa(lp4
I2
aa(lp5
I2
aa(lp6
I2
aa(lp7
I2
aa(lp8
I2
aa(lp9
I2
aa(lp10
I2
aa(lp11
I2
aa(lp12
I2
aa(lp13
I2
aa(lp14
I2
aa(lp15
I2
aa(lp16
I2
aa(lp17
I2
aa(lp18
I2
aa(lp19
I2
aa(lp20
I2
aaa(lp21
(lp22
I3
aa(lp23
I3
aa(lp24
I3
aa(lp25
I3
aa(lp26
I3
aa(lp27
I3
aa(lp28
I3
aa(lp29
I3
aa(lp30
I3
aa(lp31
I3
aaa(lp32
(lp33
I6
aa(lp34
I6
aa(lp35
I6
aa(lp36
I6
aa(lp37
I6
aa(lp38
I6
aa(lp39
I6
aa(lp40
I6
aa(lp41
I6
aa(lp42
I6
aa(lp43
I6
aa(lp44
I6
aa(lp45
I6
aa(lp46
I6
aa(lp47
I6
aa(lp48
I6
aa(lp49
I6
aa(lp50
I6
aa(lp51
I6
aa(lp52
I6
aaa(lp53
(lp54
I7
aa(lp55
I7
aa(lp56
I7
aa(lp57
I7
aa(lp58
I7
aa(lp59
I7
aa(lp60
I7
aa(lp61
I7
aa(lp62
I7
aa(lp63
I7
aa(lp64
I7
aa(lp65
I7
aaa(lp66
(lp67
I10
aa(lp68
I10
aa(lp69
I10
aa(lp70
I10
aa(lp71
I10
aa(lp72
I10
aa(lp73
I10
aa(lp74
I10
aa(lp75
I10
aa(lp76
I10
aa(lp77
I10
aa(lp78
I10
aa(lp79
I10
aa(lp80
I10
aa(lp81
I10
aa(lp82
I10
aa(lp83
I10
aa(lp84
I10
aa(lp85
I10
aa(lp86
I10
aa(lp87
I10
aaa(lp88
(lp89
I21
aa(lp90
I21
aa(lp91
I21
aa(lp92
I21
aa(lp93
I21
aa(lp94
I21
aa(lp95
I21
aa(lp96
I21
aa(lp97
I21
aa(lp98
I21
aaa(lp99
(lp100
I22
aa(lp101
I22
aa(lp102
I22
aa(lp103
I22
aa(lp104
I22
aa(lp105
I22
aa(lp106
I22
aa(lp107
I22
aa(lp108
I22
aa(lp109
I22
aa(lp110
I22
aa(lp111
I22
aa(lp112
I22
aa(lp113
I22
aa(lp114
I22
aa(lp115
I22
aa(lp116
I22
aa(lp117
I22
aaa(lp118
(lp119
I24
aa(lp120
I24
aa(lp121
I24
aa(lp122
I24
aa(lp123
I24
aa(lp124
I24
aa(lp125
I24
aa(lp126
I24
aa(lp127
I24
aa(lp128
I24
aa(lp129
I24
aa(lp130
I24
aa(lp131
I24
aa(lp132
I24
aa(lp133
I24
aa(lp134
I24
aa(lp135
I24
aa(lp136
I24
aa(lp137
I24
aa(lp138
I24
aa(lp139
I24
aa(lp140
I24
aa(lp141
I24
aa(lp142
I24
aa(lp143
I24
aa(lp144
I24
aa(lp145
I24
aa(lp146
I24
aa(lp147
I24
aa(lp148
I24
aa(lp149
I24
aa(lp150
I24
aa(lp151
I24
aa(lp152
I24
aa(lp153
I24
aa(lp154
I24
aa(lp155
I24
aa(lp156
I24
aa(lp157
I24
aa(lp158
I24
aa(lp159
I24
aa(lp160
I24
aa(lp161
I24
aa(lp162
I24
aa(lp163
I24
aa(lp164
I24
aa(lp165
I24
aa(lp166
I24
aa(lp167
I24
aa(lp168
I24
aa(lp169
I24
aa(lp170
I24
aa(lp171
I24
aa(lp172
I24
aa(lp173
I24
aa(lp174
I24
aa(lp175
I24
aa(lp176
I24
aa(lp177
I24
aa(lp178
I24
aa(lp179
I24
aa(lp180
I24
aa(lp181
I24
aa(lp182
I24
aa(lp183
I24
aa(lp184
I24
aa(lp185
I24
aa(lp186
I24
aa(lp187
I24
aa(lp188
I24
aa(lp189
I24
aa(lp190
I24
aa(lp191
I24
aa(lp192
I24
aa(lp193
I24
aa(lp194
I24
aa(lp195
I24
aa(lp196
I24
aa(lp197
I24
aa(lp198
I24
aa(lp199
I24
aa(lp200
I24
aa(lp201
I24
aa(lp202
I24
aa(lp203
I24
aa(lp204
I24
aaa(lp205
(lp206
I27
aa(lp207
I27
aa(lp208
I27
aa(lp209
I27
aa(lp210
I27
aa(lp211
I27
aa(lp212
I27
aa(lp213
I27
aa(lp214
I27
aa(lp215
I27
aa(lp216
I27
aa(lp217
I27
aa(lp218
I27
aa(lp219
I27
aa(lp220
I27
aa(lp221
I27
aa(lp222
I27
aa(lp223
I27
aa(lp224
I27
aa(lp225
I27
aa(lp226
I27
aa(lp227
I27
aa(lp228
I27
aa(lp229
I27
aa(lp230
I27
aa(lp231
I27
aa(lp232
I27
aa(lp233
I27
aa(lp234
I27
aa(lp235
I27
aa(lp236
I27
aa(lp237
I27
aa(lp238
I27
aa(lp239
I27
aa(lp240
I27
aa(lp241
I27
aaa(lp242
(lp243
I29
aa(lp244
I29
aa(lp245
I29
aa(lp246
I29
aa(lp247
I29
aa(lp248
I29
aa(lp249
I29
aa(lp250
I29
aa(lp251
I29
aa(lp252
I29
aa(lp253
I29
aa(lp254
I29
aa(lp255
I29
aa(lp256
I29
aa(lp257
I29
aa(lp258
I29
aa(lp259
I29
aa(lp260
I29
aa(lp261
I29
aa(lp262
I29
aa(lp263
I29
aa(lp264
I29
aa(lp265
I29
aa(lp266
I29
aa(lp267
I29
aa(lp268
I29
aa(lp269
I29
aa(lp270
I29
aa(lp271
I29
aa(lp272
I29
aa(lp273
I29
aa(lp274
I29
aa(lp275
I29
aa(lp276
I29
aa(lp277
I29
aa(lp278
I29
aa(lp279
I29
aa(lp280
I29
aa(lp281
I29
aa(lp282
I29
aa(lp283
I29
aa(lp284
I29
aa(lp285
I29
aa(lp286
I29
aa(lp287
I29
aa(lp288
I29
aa(lp289
I29
aa(lp290
I29
aa(lp291
I29
aa(lp292
I29
aa(lp293
I29
aa(lp294
I29
aa(lp295
I29
aa(lp296
I29
aa(lp297
I29
aa(lp298
I29
aa(lp299
I29
aa(lp300
I29
aa(lp301
I29
aa(lp302
I29
aa(lp303
I29
aa(lp304
I29
aa(lp305
I29
aa(lp306
I29
aaa.