(lp1
(lp2
(lp3
I3
aa(lp4
I3
aa(lp5
I3
aa(lp6
I3
aa(lp7
I3
aa(lp8
I3
aa(lp9
I3
aa(lp10
I3
aa(lp11
I3
aa(lp12
I3
aa(lp13
I3
aa(lp14
I3
aaa(lp15
(lp16
I6
aa(lp17
I6
aa(lp18
I6
aa(lp19
I6
aa(lp20
I6
aa(lp21
I6
aa(lp22
I6
aa(lp23
I6
aa(lp24
I6
aa(lp25
I6
aa(lp26
I6
aa(lp27
I6
aa(lp28
I6
aa(lp29
I6
aa(lp30
I6
aa(lp31
I6
aa(lp32
I6
aa(lp33
I6
aa(lp34
I6
aa(lp35
I6
aa(lp36
I6
aa(lp37
I6
aa(lp38
I6
aa(lp39
I6
aa(lp40
I6
aa(lp41
I6
aa(lp42
I6
aa(lp43
I6
aa(lp44
I6
aa(lp45
I6
aa(lp46
I6
aa(lp47
I6
aa(lp48
I6
aa(lp49
I6
aa(lp50
I6
aa(lp51
I6
aa(lp52
I6
aa(lp53
I6
aa(lp54
I6
aa(lp55
I6
aa(lp56
I6
aa(lp57
I6
aa(lp58
I6
aa(lp59
I6
aa(lp60
I6
aa(lp61
I6
aa(lp62
I6
aa(lp63
I6
aa(lp64
I6
aa(lp65
I6
aa(lp66
I6
aa(lp67
I6
aa(lp68
I6
aa(lp69
I6
aa(lp70
I6
aa(lp71
I6
aa(lp72
I6
aa(lp73
I6
aa(lp74
I6
aa(lp75
I6
aa(lp76
I6
aa(lp77
I6
aa(lp78
I6
aa(lp79
I6
aa(lp80
I6
aa(lp81
I6
aa(lp82
I6
aaa(lp83
(lp84
I9
aa(lp85
I9
aa(lp86
I9
aa(lp87
I9
aa(lp88
I9
aa(lp89
I9
aa(lp90
I9
aa(lp91
I9
aa(lp92
I9
aa(lp93
I9
aa(lp94
I9
aa(lp95
I9
aa(lp96
I9
aa(lp97
I9
aa(lp98
I9
aa(lp99
I9
aa(lp100
I9
aa(lp101
I9
aa(lp102
I9
aa(lp103
I9
aa(lp104
I9
aa(lp105
I9
aa(lp106
I9
aa(lp107
I9
aa(lp108
I9
aa(lp109
I9
aa(lp110
I9
aa(lp111
I9
aa(lp112
I9
aa(lp113
I9
aa(lp114
I9
aa(lp115
I9
aa(lp116
I9
aa(lp117
I9
aa(lp118
I9
aa(lp119
I9
aa(lp120
I9
aa(lp121
I9
aa(lp122
I9
aa(lp123
I9
aa(lp124
I9
aa(lp125
I9
aa(lp126
I9
aaa(lp127
(lp128
I13
aa(lp129
I13
aa(lp130
I13
aa(lp131
I13
aa(lp132
I13
aa(lp133
I13
aa(lp134
I13
aa(lp135
I13
aa(lp136
I13
aa(lp137
I13
aa(lp138
I13
aa(lp139
I13
aa(lp140
I13
aa(lp141
I13
aaa(lp142
(lp143
I14
aa(lp144
I14
aa(lp145
I14
aa(lp146
I14
aa(lp147
I14
aa(lp148
I14
aa(lp149
I14
aa(lp150
I14
aa(lp151
I14
aa(lp152
I14
aa(lp153
I14
aa(lp154
I14
aa(lp155
I14
aa(lp156
I14
aa(lp157
I14
aa(lp158
I14
aa(lp159
I14
aa(lp160
I14
aa(lp161
I14
aaa(lp162
(lp163
I16
aa(lp164
I16
aa(lp165
I16
aa(lp166
I16
aa(lp167
I16
aa(lp168
I16
aa(lp169
I16
aa(lp170
I16
aa(lp171
I16
aa(lp172
I16
aa(lp173
I16
aa(lp174
I16
aa(lp175
I16
aa(lp176
I16
aa(lp177
I16
aa(lp178
I16
aa(lp179
I16
aa(lp180
I16
aa(lp181
I16
aa(lp182
I16
aa(lp183
I16
aa(lp184
I16
aa(lp185
I16
aa(lp186
I16
aa(lp187
I16
aa(lp188
I16
aa(lp189
I16
aa(lp190
I16
aa(lp191
I16
aa(lp192
I16
aa(lp193
I16
aa(lp194
I16
aa(lp195
I16
aa(lp196
I16
aa(lp197
I16
aa(lp198
I16
aa(lp199
I16
aa(lp200
I16
aa(lp201
I16
aa(lp202
I16
aa(lp203
I16
aa(lp204
I16
aa(lp205
I16
aa(lp206
I16
aa(lp207
I16
aa(lp208
I16
aa(lp209
I16
aa(lp210
I16
aa(lp211
I16
aa(lp212
I16
aa(lp213
I16
aa(lp214
I16
aaa(lp215
(lp216
I19
aa(lp217
I19
aa(lp218
I19
aa(lp219
I19
aa(lp220
I19
aa(lp221
I19
aa(lp222
I19
aa(lp223
I19
aa(lp224
I19
aa(lp225
I19
aa(lp226
I19
aa(lp227
I19
aa(lp228
I19
aa(lp229
I19
aa(lp230
I19
aa(lp231
I19
aa(lp232
I19
aa(lp233
I19
aa(lp234
I19
aaa(lp235
(lp236
I21
aa(lp237
I21
aa(lp238
I21
aa(lp239
I21
aa(lp240
I21
aa(lp241
I21
aa(lp242
I21
aa(lp243
I21
aa(lp244
I21
aa(lp245
I21
aaa(lp246
(lp247
I23
aa(lp248
I23
aa(lp249
I23
aa(lp250
I23
aa(lp251
I23
aa(lp252
I23
aa(lp253
I23
aa(lp254
I23
aa(lp255
I23
aa(lp256
I23
aa(lp257
I23
aa(lp258
I23
aa(lp259
I23
aa(lp260
I23
aa(lp261
I23
aa(lp262
I23
aa(lp263
I23
aa(lp264
I23
aa(lp265
I23
aa(lp266
I23
aaa(lp267
(lp268
I28
aa(lp269
I28
aa(lp270
I28
aa(lp271
I28
aa(lp272
I28
aa(lp273
I28
aa(lp274
I28
aa(lp275
I28
aa(lp276
I28
aa(lp277
I28
aa(lp278
I28
aa(lp279
I28
aa(lp280
I28
aa(lp281
I28
aa(lp282
I28
aa(lp283
I28
aa(lp284
I28
aa(lp285
I28
aa(lp286
I28
aa(lp287
I28
aaa(lp288
(lp289
I30
aa(lp290
I30
aa(lp291
I30
aa(lp292
I30
aa(lp293
I30
aa(lp294
I30
aa(lp295
I30
aa(lp296
I30
aa(lp297
I30
aa(lp298
I30
aa(lp299
I30
aaa(lp300
(lp301
I32
aa(lp302
I32
aa(lp303
I32
aa(lp304
I32
aa(lp305
I32
aa(lp306
I32
aa(lp307
I32
aa(lp308
I32
aa(lp309
I32
aa(lp310
I32
aa(lp311
I32
aa(lp312
I32
aaa(lp313
(lp314
I36
aa(lp315
I36
aa(lp316
I36
aa(lp317
I36
aa(lp318
I36
aa(lp319
I36
aa(lp320
I36
aa(lp321
I36
aa(lp322
I36
aa(lp323
I36
aa(lp324
I36
aa(lp325
I36
aa(lp326
I36
aa(lp327
I36
aa(lp328
I36
aa(lp329
I36
aa(lp330
I36
aa(lp331
I36
aa(lp332
I36
aa(lp333
I36
aa(lp334
I36
aa(lp335
I36
aa(lp336
I36
aa(lp337
I36
aa(lp338
I36
aa(lp339
I36
aa(lp340
I36
aa(lp341
I36
aa(lp342
I36
aa(lp343
I36
aa(lp344
I36
aa(lp345
I36
aa(lp346
I36
aa(lp347
I36
aa(lp348
I36
aa(lp349
I36
aa(lp350
I36
aa(lp351
I36
aa(lp352
I36
aa(lp353
I36
aa(lp354
I36
aa(lp355
I36
aa(lp356
I36
aa(lp357
I36
aa(lp358
I36
aa(lp359
I36
aa(lp360
I36
aa(lp361
I36
aa(lp362
I36
aa(lp363
I36
aa(lp364
I36
aa(lp365
I36
aa(lp366
I36
aa(lp367
I36
aa(lp368
I36
aa(lp369
I36
aa(lp370
I36
aa(lp371
I36
aa(lp372
I36
aa(lp373
I36
aa(lp374
I36
aa(lp375
I36
aa(lp376
I36
aa(lp377
I36
aa(lp378
I36
aa(lp379
I36
aa(lp380
I36
aa(lp381
I36
aa(lp382
I36
aa(lp383
I36
aa(lp384
I36
aa(lp385
I36
aa(lp386
I36
aa(lp387
I36
aa(lp388
I36
aa(lp389
I36
aa(lp390
I36
aa(lp391
I36
aa(lp392
I36
aa(lp393
I36
aa(lp394
I36
aa(lp395
I36
aa(lp396
I36
aa(lp397
I36
aaa(lp398
(lp399
I42
aa(lp400
I42
aa(lp401
I42
aa(lp402
I42
aa(lp403
I42
aa(lp404
I42
aa(lp405
I42
aa(lp406
I42
aa(lp407
I42
aa(lp408
I42
aa(lp409
I42
aaa(lp410
(lp411
I45
aa(lp412
I45
aa(lp413
I45
aa(lp414
I45
aa(lp415
I45
aa(lp416
I45
aa(lp417
I45
aa(lp418
I45
aa(lp419
I45
aa(lp420
I45
aa(lp421
I45
aa(lp422
I45
aa(lp423
I45
aa(lp424
I45
aa(lp425
I45
aa(lp426
I45
aa(lp427
I45
aa(lp428
I45
aa(lp429
I45
aa(lp430
I45
aa(lp431
I45
aa(lp432
I45
aaa(lp433
(lp434
I46
aa(lp435
I46
aa(lp436
I46
aa(lp437
I46
aa(lp438
I46
aa(lp439
I46
aa(lp440
I46
aa(lp441
I46
aa(lp442
I46
aa(lp443
I46
aa(lp444
I46
aa(lp445
I46
aaa(lp446
(lp447
I47
aa(lp448
I47
aa(lp449
I47
aa(lp450
I47
aa(lp451
I47
aa(lp452
I47
aa(lp453
I47
aa(lp454
I47
aa(lp455
I47
aa(lp456
I47
aa(lp457
I47
aa(lp458
I47
aa(lp459
I47
aa(lp460
I47
aaa(lp461
(lp462
I50
aa(lp463
I50
aa(lp464
I50
aa(lp465
I50
aa(lp466
I50
aa(lp467
I50
aa(lp468
I50
aa(lp469
I50
aa(lp470
I50
aa(lp471
I50
aa(lp472
I50
aa(lp473
I50
aa(lp474
I50
aa(lp475
I50
aa(lp476
I50
aa(lp477
I50
aa(lp478
I50
aa(lp479
I50
aa(lp480
I50
aa(lp481
I50
aaa.