(lp1
(lp2
(lp3
I3
aa(lp4
I3
aa(lp5
I3
aa(lp6
I3
aa(lp7
I3
aa(lp8
I3
aa(lp9
I3
aa(lp10
I3
aa(lp11
I3
aa(lp12
I3
aa(lp13
I3
aa(lp14
I3
aa(lp15
I3
aa(lp16
I3
aa(lp17
I3
aa(lp18
I3
aa(lp19
I3
aa(lp20
I3
aa(lp21
I3
aa(lp22
I3
aa(lp23
I3
aa(lp24
I3
aa(lp25
I3
aa(lp26
I3
aa(lp27
I3
aa(lp28
I3
aa(lp29
I3
aa(lp30
I3
aa(lp31
I3
aa(lp32
I3
aa(lp33
I3
aa(lp34
I3
aa(lp35
I3
aa(lp36
I3
aa(lp37
I3
aa(lp38
I3
aa(lp39
I3
aa(lp40
I3
aa(lp41
I3
aa(lp42
I3
aa(lp43
I3
aa(lp44
I3
aa(lp45
I3
aaa.