(lp1
(lp2
(lp3
I1
aa(lp4
I1
aa(lp5
I1
aa(lp6
I1
aa(lp7
I1
aa(lp8
I1
aa(lp9
I1
aa(lp10
I1
aa(lp11
I1
aa(lp12
I1
aa(lp13
I1
aa(lp14
I1
aa(lp15
I1
aa(lp16
I1
aa(lp17
I1
aa(lp18
I1
aaa(lp19
(lp20
I3
aa(lp21
I3
aa(lp22
I3
aa(lp23
I3
aa(lp24
I3
aa(lp25
I3
aa(lp26
I3
aa(lp27
I3
aa(lp28
I3
aa(lp29
I3
aa(lp30
I3
aa(lp31
I3
aa(lp32
I3
aa(lp33
I3
aa(lp34
I3
aa(lp35
I3
aa(lp36
I3
aa(lp37
I3
aa(lp38
I3
aa(lp39
I3
aa(lp40
I3
aa(lp41
I3
aa(lp42
I3
aa(lp43
I3
aa(lp44
I3
aa(lp45
I3
aa(lp46
I3
aa(lp47
I3
aa(lp48
I3
aa(lp49
I3
aa(lp50
I3
aa(lp51
I3
aa(lp52
I3
aa(lp53
I3
aa(lp54
I3
aa(lp55
I3
aa(lp56
I3
aa(lp57
I3
aa(lp58
I3
aa(lp59
I3
aa(lp60
I3
aa(lp61
I3
aa(lp62
I3
aa(lp63
I3
aa(lp64
I3
aa(lp65
I3
aa(lp66
I3
aa(lp67
I3
aa(lp68
I3
aa(lp69
I3
aa(lp70
I3
aa(lp71
I3
aa(lp72
I3
aa(lp73
I3
aa(lp74
I3
aa(lp75
I3
aa(lp76
I3
aa(lp77
I3
aa(lp78
I3
aa(lp79
I3
aa(lp80
I3
aa(lp81
I3
aa(lp82
I3
aa(lp83
I3
aa(lp84
I3
aa(lp85
I3
aa(lp86
I3
aa(lp87
I3
aa(lp88
I3
aa(lp89
I3
aa(lp90
I3
aa(lp91
I3
aa(lp92
I3
aa(lp93
I3
aa(lp94
I3
aa(lp95
I3
aa(lp96
I3
aa(lp97
I3
aa(lp98
I3
aa(lp99
I3
aa(lp100
I3
aa(lp101
I3
aa(lp102
I3
aa(lp103
I3
aa(lp104
I3
aa(lp105
I3
aa(lp106
I3
aa(lp107
I3
aa(lp108
I3
aa(lp109
I3
aa(lp110
I3
aa(lp111
I3
aa(lp112
I3
aa(lp113
I3
aa(lp114
I3
aa(lp115
I3
aa(lp116
I3
aa(lp117
I3
aaa(lp118
(lp119
I4
aa(lp120
I4
aa(lp121
I4
aa(lp122
I4
aa(lp123
I4
aa(lp124
I4
aa(lp125
I4
aa(lp126
I4
aa(lp127
I4
aa(lp128
I4
aaa(lp129
(lp130
I5
aa(lp131
I5
aa(lp132
I5
aa(lp133
I5
aa(lp134
I5
aa(lp135
I5
aa(lp136
I5
aa(lp137
I5
aa(lp138
I5
aa(lp139
I5
aa(lp140
I5
aa(lp141
I5
aa(lp142
I5
aa(lp143
I5
aa(lp144
I5
aa(lp145
I5
aa(lp146
I5
aa(lp147
I5
aa(lp148
I5
aa(lp149
I5
aa(lp150
I5
aa(lp151
I5
aa(lp152
I5
aa(lp153
I5
aa(lp154
I5
aa(lp155
I5
aa(lp156
I5
aa(lp157
I5
aa(lp158
I5
aaa(lp159
(lp160
I8
aa(lp161
I8
aa(lp162
I8
aa(lp163
I8
aa(lp164
I8
aa(lp165
I8
aa(lp166
I8
aa(lp167
I8
aa(lp168
I8
aa(lp169
I8
aa(lp170
I8
aa(lp171
I8
aa(lp172
I8
aa(lp173
I8
aa(lp174
I8
aaa(lp175
(lp176
I9
aa(lp177
I9
aa(lp178
I9
aa(lp179
I9
aa(lp180
I9
aa(lp181
I9
aa(lp182
I9
aa(lp183
I9
aa(lp184
I9
aa(lp185
I9
aa(lp186
I9
aa(lp187
I9
aa(lp188
I9
aa(lp189
I9
aa(lp190
I9
aa(lp191
I9
aa(lp192
I9
aa(lp193
I9
aa(lp194
I9
aa(lp195
I9
aa(lp196
I9
aa(lp197
I9
aa(lp198
I9
aa(lp199
I9
aa(lp200
I9
aa(lp201
I9
aa(lp202
I9
aa(lp203
I9
aa(lp204
I9
aa(lp205
I9
aa(lp206
I9
aa(lp207
I9
aa(lp208
I9
aa(lp209
I9
aa(lp210
I9
aa(lp211
I9
aa(lp212
I9
aa(lp213
I9
aa(lp214
I9
aa(lp215
I9
aa(lp216
I9
aa(lp217
I9
aa(lp218
I9
aa(lp219
I9
aa(lp220
I9
aa(lp221
I9
aa(lp222
I9
aa(lp223
I9
aaa(lp224
(lp225
I10
aa(lp226
I10
aa(lp227
I10
aa(lp228
I10
aa(lp229
I10
aa(lp230
I10
aa(lp231
I10
aa(lp232
I10
aa(lp233
I10
aa(lp234
I10
aa(lp235
I10
aa(lp236
I10
aa(lp237
I10
aa(lp238
I10
aa(lp239
I10
aa(lp240
I10
aa(lp241
I10
aa(lp242
I10
aa(lp243
I10
aa(lp244
I10
aa(lp245
I10
aa(lp246
I10
aa(lp247
I10
aa(lp248
I10
aa(lp249
I10
aa(lp250
I10
aa(lp251
I10
aa(lp252
I10
aa(lp253
I10
aa(lp254
I10
aa(lp255
I10
aa(lp256
I10
aa(lp257
I10
aa(lp258
I10
aa(lp259
I10
aa(lp260
I10
aa(lp261
I10
aa(lp262
I10
aa(lp263
I10
aa(lp264
I10
aa(lp265
I10
aa(lp266
I10
aa(lp267
I10
aa(lp268
I10
aa(lp269
I10
aa(lp270
I10
aa(lp271
I10
aa(lp272
I10
aa(lp273
I10
aa(lp274
I10
aa(lp275
I10
aa(lp276
I10
aa(lp277
I10
aa(lp278
I10
aa(lp279
I10
aa(lp280
I10
aa(lp281
I10
aa(lp282
I10
aa(lp283
I10
aa(lp284
I10
aa(lp285
I10
aa(lp286
I10
aa(lp287
I10
aa(lp288
I10
aa(lp289
I10
aa(lp290
I10
aa(lp291
I10
aa(lp292
I10
aa(lp293
I10
aa(lp294
I10
aa(lp295
I10
aa(lp296
I10
aa(lp297
I10
aa(lp298
I10
aa(lp299
I10
aa(lp300
I10
aa(lp301
I10
aa(lp302
I10
aa(lp303
I10
aa(lp304
I10
aa(lp305
I10
aa(lp306
I10
aa(lp307
I10
aa(lp308
I10
aaa(lp309
(lp310
I11
aa(lp311
I11
aa(lp312
I11
aa(lp313
I11
aa(lp314
I11
aa(lp315
I11
aa(lp316
I11
aa(lp317
I11
aa(lp318
I11
aa(lp319
I11
aa(lp320
I11
aa(lp321
I11
aaa(lp322
(lp323
I14
aa(lp324
I14
aa(lp325
I14
aa(lp326
I14
aa(lp327
I14
aa(lp328
I14
aa(lp329
I14
aa(lp330
I14
aa(lp331
I14
aa(lp332
I14
aa(lp333
I14
aa(lp334
I14
aa(lp335
I14
aa(lp336
I14
aa(lp337
I14
aa(lp338
I14
aa(lp339
I14
aa(lp340
I14
aa(lp341
I14
aa(lp342
I14
aa(lp343
I14
aa(lp344
I14
aa(lp345
I14
aa(lp346
I14
aa(lp347
I14
aa(lp348
I14
aa(lp349
I14
aa(lp350
I14
aa(lp351
I14
aa(lp352
I14
aa(lp353
I14
aa(lp354
I14
aa(lp355
I14
aa(lp356
I14
aaa(lp357
(lp358
I17
aa(lp359
I17
aa(lp360
I17
aa(lp361
I17
aa(lp362
I17
aa(lp363
I17
aa(lp364
I17
aa(lp365
I17
aa(lp366
I17
aa(lp367
I17
aa(lp368
I17
aa(lp369
I17
aaa(lp370
(lp371
I19
aa(lp372
I19
aa(lp373
I19
aa(lp374
I19
aa(lp375
I19
aa(lp376
I19
aa(lp377
I19
aa(lp378
I19
aa(lp379
I19
aa(lp380
I19
aa(lp381
I19
aa(lp382
I19
aa(lp383
I19
aa(lp384
I19
aa(lp385
I19
aa(lp386
I19
aa(lp387
I19
aa(lp388
I19
aa(lp389
I19
aa(lp390
I19
aa(lp391
I19
aa(lp392
I19
aa(lp393
I19
aa(lp394
I19
aa(lp395
I19
aa(lp396
I19
aa(lp397
I19
aa(lp398
I19
aa(lp399
I19
aa(lp400
I19
aa(lp401
I19
aa(lp402
I19
aa(lp403
I19
aa(lp404
I19
aa(lp405
I19
aa(lp406
I19
aa(lp407
I19
aa(lp408
I19
aa(lp409
I19
aa(lp410
I19
aa(lp411
I19
aaa(lp412
(lp413
I22
aa(lp414
I22
aa(lp415
I22
aa(lp416
I22
aa(lp417
I22
aa(lp418
I22
aa(lp419
I22
aa(lp420
I22
aa(lp421
I22
aa(lp422
I22
aa(lp423
I22
aa(lp424
I22
aa(lp425
I22
aa(lp426
I22
aa(lp427
I22
aa(lp428
I22
aa(lp429
I22
aa(lp430
I22
aa(lp431
I22
aa(lp432
I22
aa(lp433
I22
aa(lp434
I22
aa(lp435
I22
aa(lp436
I22
aa(lp437
I22
aa(lp438
I22
aa(lp439
I22
aa(lp440
I22
aa(lp441
I22
aa(lp442
I22
aa(lp443
I22
aa(lp444
I22
aa(lp445
I22
aa(lp446
I22
aa(lp447
I22
aa(lp448
I22
aa(lp449
I22
aa(lp450
I22
aa(lp451
I22
aa(lp452
I22
aa(lp453
I22
aa(lp454
I22
aa(lp455
I22
aa(lp456
I22
aa(lp457
I22
aa(lp458
I22
aa(lp459
I22
aa(lp460
I22
aa(lp461
I22
aa(lp462
I22
aa(lp463
I22
aa(lp464
I22
aa(lp465
I22
aa(lp466
I22
aa(lp467
I22
aa(lp468
I22
aa(lp469
I22
aa(lp470
I22
aa(lp471
I22
aa(lp472
I22
aa(lp473
I22
aa(lp474
I22
aaa(lp475
(lp476
I23
aa(lp477
I23
aa(lp478
I23
aa(lp479
I23
aa(lp480
I23
aa(lp481
I23
aa(lp482
I23
aa(lp483
I23
aa(lp484
I23
aa(lp485
I23
aa(lp486
I23
aa(lp487
I23
aa(lp488
I23
aa(lp489
I23
aa(lp490
I23
aa(lp491
I23
aa(lp492
I23
aa(lp493
I23
aa(lp494
I23
aa(lp495
I23
aa(lp496
I23
aa(lp497
I23
aaa(lp498
(lp499
I27
aa(lp500
I27
aa(lp501
I27
aa(lp502
I27
aa(lp503
I27
aa(lp504
I27
aa(lp505
I27
aa(lp506
I27
aa(lp507
I27
aa(lp508
I27
aa(lp509
I27
aaa.