(lp1
(lp2
(lp3
I3
aa(lp4
I3
aa(lp5
I3
aa(lp6
I3
aa(lp7
I3
aa(lp8
I3
aa(lp9
I3
aa(lp10
I3
aa(lp11
I3
aa(lp12
I3
aa(lp13
I3
aa(lp14
I3
aa(lp15
I3
aa(lp16
I3
aa(lp17
I3
aa(lp18
I3
aa(lp19
I3
aa(lp20
I3
aa(lp21
I3
aa(lp22
I3
aa(lp23
I3
aa(lp24
I3
aa(lp25
I3
aa(lp26
I3
aa(lp27
I3
aa(lp28
I3
aa(lp29
I3
aa(lp30
I3
aa(lp31
I3
aa(lp32
I3
aa(lp33
I3
aa(lp34
I3
aa(lp35
I3
aa(lp36
I3
aa(lp37
I3
aa(lp38
I3
aa(lp39
I3
aa(lp40
I3
aa(lp41
I3
aa(lp42
I3
aa(lp43
I3
aa(lp44
I3
aa(lp45
I3
aaa(lp46
(lp47
I7
aa(lp48
I7
aa(lp49
I7
aa(lp50
I7
aa(lp51
I7
aa(lp52
I7
aa(lp53
I7
aa(lp54
I7
aa(lp55
I7
aa(lp56
I7
aa(lp57
I7
aa(lp58
I7
aa(lp59
I7
aa(lp60
I7
aa(lp61
I7
aa(lp62
I7
aa(lp63
I7
aa(lp64
I7
aa(lp65
I7
aa(lp66
I7
aa(lp67
I7
aa(lp68
I7
aa(lp69
I7
aa(lp70
I7
aa(lp71
I7
aa(lp72
I7
aa(lp73
I7
aa(lp74
I7
aa(lp75
I7
aa(lp76
I7
aa(lp77
I7
aa(lp78
I7
aa(lp79
I7
aa(lp80
I7
aa(lp81
I7
aa(lp82
I7
aa(lp83
I7
aa(lp84
I7
aa(lp85
I7
aa(lp86
I7
aa(lp87
I7
aa(lp88
I7
aaa(lp89
(lp90
I8
aa(lp91
I8
aa(lp92
I8
aa(lp93
I8
aa(lp94
I8
aa(lp95
I8
aa(lp96
I8
aa(lp97
I8
aa(lp98
I8
aa(lp99
I8
aa(lp100
I8
aa(lp101
I8
aa(lp102
I8
aa(lp103
I8
aa(lp104
I8
aa(lp105
I8
aa(lp106
I8
aa(lp107
I8
aa(lp108
I8
aaa(lp109
(lp110
I10
aa(lp111
I10
aa(lp112
I10
aa(lp113
I10
aa(lp114
I10
aa(lp115
I10
aa(lp116
I10
aa(lp117
I10
aa(lp118
I10
aa(lp119
I10
aa(lp120
I10
aa(lp121
I10
aa(lp122
I10
aa(lp123
I10
aa(lp124
I10
aa(lp125
I10
aa(lp126
I10
aa(lp127
I10
aaa(lp128
(lp129
I12
aa(lp130
I12
aa(lp131
I12
aa(lp132
I12
aa(lp133
I12
aa(lp134
I12
aa(lp135
I12
aa(lp136
I12
aa(lp137
I12
aa(lp138
I12
aa(lp139
I12
aa(lp140
I12
aa(lp141
I12
aa(lp142
I12
aa(lp143
I12
aa(lp144
I12
aa(lp145
I12
aa(lp146
I12
aa(lp147
I12
aa(lp148
I12
aa(lp149
I12
aa(lp150
I12
aa(lp151
I12
aa(lp152
I12
aa(lp153
I12
aa(lp154
I12
aa(lp155
I12
aa(lp156
I12
aa(lp157
I12
aa(lp158
I12
aa(lp159
I12
aa(lp160
I12
aa(lp161
I12
aa(lp162
I12
aa(lp163
I12
aa(lp164
I12
aa(lp165
I12
aa(lp166
I12
aa(lp167
I12
aa(lp168
I12
aa(lp169
I12
aa(lp170
I12
aa(lp171
I12
aa(lp172
I12
aa(lp173
I12
aa(lp174
I12
aa(lp175
I12
aa(lp176
I12
aa(lp177
I12
aa(lp178
I12
aa(lp179
I12
aa(lp180
I12
aa(lp181
I12
aa(lp182
I12
aa(lp183
I12
aa(lp184
I12
aa(lp185
I12
aa(lp186
I12
aaa(lp187
(lp188
I13
aa(lp189
I13
aa(lp190
I13
aa(lp191
I13
aa(lp192
I13
aa(lp193
I13
aa(lp194
I13
aa(lp195
I13
aa(lp196
I13
aa(lp197
I13
aa(lp198
I13
aa(lp199
I13
aa(lp200
I13
aa(lp201
I13
aaa(lp202
(lp203
I16
aa(lp204
I16
aa(lp205
I16
aa(lp206
I16
aa(lp207
I16
aa(lp208
I16
aa(lp209
I16
aa(lp210
I16
aa(lp211
I16
aa(lp212
I16
aa(lp213
I16
aa(lp214
I16
aa(lp215
I16
aa(lp216
I16
aa(lp217
I16
aa(lp218
I16
aa(lp219
I16
aa(lp220
I16
aa(lp221
I16
aa(lp222
I16
aa(lp223
I16
aa(lp224
I16
aa(lp225
I16
aa(lp226
I16
aa(lp227
I16
aa(lp228
I16
aa(lp229
I16
aa(lp230
I16
aa(lp231
I16
aa(lp232
I16
aa(lp233
I16
aa(lp234
I16
aa(lp235
I16
aa(lp236
I16
aa(lp237
I16
aa(lp238
I16
aa(lp239
I16
aa(lp240
I16
aa(lp241
I16
aa(lp242
I16
aa(lp243
I16
aa(lp244
I16
aa(lp245
I16
aa(lp246
I16
aa(lp247
I16
aa(lp248
I16
aa(lp249
I16
aa(lp250
I16
aa(lp251
I16
aa(lp252
I16
aa(lp253
I16
aa(lp254
I16
aa(lp255
I16
aa(lp256
I16
aa(lp257
I16
aa(lp258
I16
aa(lp259
I16
aa(lp260
I16
aa(lp261
I16
aa(lp262
I16
aa(lp263
I16
aa(lp264
I16
aa(lp265
I16
aa(lp266
I16
aa(lp267
I16
aaa(lp268
(lp269
I18
aa(lp270
I18
aa(lp271
I18
aa(lp272
I18
aa(lp273
I18
aa(lp274
I18
aa(lp275
I18
aa(lp276
I18
aa(lp277
I18
aa(lp278
I18
aa(lp279
I18
aa(lp280
I18
aa(lp281
I18
aa(lp282
I18
aa(lp283
I18
aa(lp284
I18
aa(lp285
I18
aa(lp286
I18
aaa.