(lp1
(lp2
(lp3
I3
aa(lp4
I3
aa(lp5
I3
aa(lp6
I3
aa(lp7
I3
aa(lp8
I3
aa(lp9
I3
aa(lp10
I3
aa(lp11
I3
aa(lp12
I3
aa(lp13
I3
aa(lp14
I3
aaa(lp15
(lp16
I6
aa(lp17
I6
aa(lp18
I6
aa(lp19
I6
aa(lp20
I6
aa(lp21
I6
aa(lp22
I6
aa(lp23
I6
aa(lp24
I6
aa(lp25
I6
aa(lp26
I6
aa(lp27
I6
aa(lp28
I6
aa(lp29
I6
aa(lp30
I6
aa(lp31
I6
aa(lp32
I6
aa(lp33
I6
aa(lp34
I6
aa(lp35
I6
aa(lp36
I6
aa(lp37
I6
aa(lp38
I6
aa(lp39
I6
aa(lp40
I6
aa(lp41
I6
aa(lp42
I6
aa(lp43
I6
aa(lp44
I6
aa(lp45
I6
aa(lp46
I6
aa(lp47
I6
aa(lp48
I6
aa(lp49
I6
aa(lp50
I6
aa(lp51
I6
aa(lp52
I6
aa(lp53
I6
aa(lp54
I6
aa(lp55
I6
aa(lp56
I6
aa(lp57
I6
aa(lp58
I6
aa(lp59
I6
aa(lp60
I6
aa(lp61
I6
aa(lp62
I6
aa(lp63
I6
aa(lp64
I6
aa(lp65
I6
aa(lp66
I6
aa(lp67
I6
aa(lp68
I6
aa(lp69
I6
aa(lp70
I6
aa(lp71
I6
aa(lp72
I6
aa(lp73
I6
aa(lp74
I6
aa(lp75
I6
aa(lp76
I6
aa(lp77
I6
aa(lp78
I6
aa(lp79
I6
aa(lp80
I6
aa(lp81
I6
aa(lp82
I6
aaa(lp83
(lp84
I9
aa(lp85
I9
aa(lp86
I9
aa(lp87
I9
aa(lp88
I9
aa(lp89
I9
aa(lp90
I9
aa(lp91
I9
aa(lp92
I9
aa(lp93
I9
aa(lp94
I9
aa(lp95
I9
aa(lp96
I9
aa(lp97
I9
aa(lp98
I9
aa(lp99
I9
aa(lp100
I9
aa(lp101
I9
aa(lp102
I9
aa(lp103
I9
aa(lp104
I9
aa(lp105
I9
aa(lp106
I9
aa(lp107
I9
aa(lp108
I9
aa(lp109
I9
aa(lp110
I9
aa(lp111
I9
aa(lp112
I9
aa(lp113
I9
aa(lp114
I9
aa(lp115
I9
aa(lp116
I9
aa(lp117
I9
aa(lp118
I9
aa(lp119
I9
aa(lp120
I9
aa(lp121
I9
aa(lp122
I9
aa(lp123
I9
aa(lp124
I9
aa(lp125
I9
aa(lp126
I9
aaa(lp127
(lp128
I13
aa(lp129
I13
aa(lp130
I13
aa(lp131
I13
aa(lp132
I13
aa(lp133
I13
aa(lp134
I13
aa(lp135
I13
aa(lp136
I13
aa(lp137
I13
aa(lp138
I13
aa(lp139
I13
aa(lp140
I13
aa(lp141
I13
aaa(lp142
(lp143
I14
aa(lp144
I14
aa(lp145
I14
aa(lp146
I14
aa(lp147
I14
aa(lp148
I14
aa(lp149
I14
aa(lp150
I14
aa(lp151
I14
aa(lp152
I14
aa(lp153
I14
aa(lp154
I14
aa(lp155
I14
aa(lp156
I14
aa(lp157
I14
aa(lp158
I14
aa(lp159
I14
aa(lp160
I14
aa(lp161
I14
aaa(lp162
(lp163
I16
aa(lp164
I16
aa(lp165
I16
aa(lp166
I16
aa(lp167
I16
aa(lp168
I16
aa(lp169
I16
aa(lp170
I16
aa(lp171
I16
aa(lp172
I16
aa(lp173
I16
aa(lp174
I16
aa(lp175
I16
aa(lp176
I16
aa(lp177
I16
aa(lp178
I16
aa(lp179
I16
aa(lp180
I16
aa(lp181
I16
aa(lp182
I16
aa(lp183
I16
aa(lp184
I16
aa(lp185
I16
aa(lp186
I16
aa(lp187
I16
aa(lp188
I16
aa(lp189
I16
aa(lp190
I16
aa(lp191
I16
aa(lp192
I16
aa(lp193
I16
aa(lp194
I16
aa(lp195
I16
aa(lp196
I16
aa(lp197
I16
aa(lp198
I16
aa(lp199
I16
aa(lp200
I16
aa(lp201
I16
aa(lp202
I16
aa(lp203
I16
aa(lp204
I16
aa(lp205
I16
aa(lp206
I16
aa(lp207
I16
aa(lp208
I16
aa(lp209
I16
aa(lp210
I16
aa(lp211
I16
aa(lp212
I16
aa(lp213
I16
aa(lp214
I16
aaa(lp215
(lp216
I19
aa(lp217
I19
aa(lp218
I19
aa(lp219
I19
aa(lp220
I19
aa(lp221
I19
aa(lp222
I19
aa(lp223
I19
aa(lp224
I19
aa(lp225
I19
aa(lp226
I19
aa(lp227
I19
aa(lp228
I19
aa(lp229
I19
aa(lp230
I19
aa(lp231
I19
aa(lp232
I19
aa(lp233
I19
aa(lp234
I19
aaa(lp235
(lp236
I21
aa(lp237
I21
aa(lp238
I21
aa(lp239
I21
aa(lp240
I21
aa(lp241
I21
aa(lp242
I21
aa(lp243
I21
aa(lp244
I21
aa(lp245
I21
aaa(lp246
(lp247
I23
aa(lp248
I23
aa(lp249
I23
aa(lp250
I23
aa(lp251
I23
aa(lp252
I23
aa(lp253
I23
aa(lp254
I23
aa(lp255
I23
aa(lp256
I23
aa(lp257
I23
aa(lp258
I23
aa(lp259
I23
aa(lp260
I23
aa(lp261
I23
aa(lp262
I23
aa(lp263
I23
aa(lp264
I23
aa(lp265
I23
aa(lp266
I23
aaa(lp267
(lp268
I28
aa(lp269
I28
aa(lp270
I28
aa(lp271
I28
aa(lp272
I28
aa(lp273
I28
aa(lp274
I28
aa(lp275
I28
aa(lp276
I28
aa(lp277
I28
aa(lp278
I28
aa(lp279
I28
aa(lp280
I28
aa(lp281
I28
aa(lp282
I28
aa(lp283
I28
aa(lp284
I28
aa(lp285
I28
aa(lp286
I28
aa(lp287
I28
aaa(lp288
(lp289
I30
aa(lp290
I30
aa(lp291
I30
aa(lp292
I30
aa(lp293
I30
aa(lp294
I30
aa(lp295
I30
aa(lp296
I30
aa(lp297
I30
aa(lp298
I30
aa(lp299
I30
aaa(lp300
(lp301
I32
aa(lp302
I32
aa(lp303
I32
aa(lp304
I32
aa(lp305
I32
aa(lp306
I32
aa(lp307
I32
aa(lp308
I32
aa(lp309
I32
aa(lp310
I32
aa(lp311
I32
aa(lp312
I32
aaa(lp313
(lp314
I36
aa(lp315
I36
aa(lp316
I36
aa(lp317
I36
aa(lp318
I36
aa(lp319
I36
aa(lp320
I36
aa(lp321
I36
aa(lp322
I36
aa(lp323
I36
aa(lp324
I36
aa(lp325
I36
aa(lp326
I36
aa(lp327
I36
aa(lp328
I36
aa(lp329
I36
aa(lp330
I36
aa(lp331
I36
aa(lp332
I36
aa(lp333
I36
aa(lp334
I36
aa(lp335
I36
aa(lp336
I36
aa(lp337
I36
aa(lp338
I36
aa(lp339
I36
aa(lp340
I36
aa(lp341
I36
aa(lp342
I36
aa(lp343
I36
aa(lp344
I36
aa(lp345
I36
aa(lp346
I36
aa(lp347
I36
aa(lp348
I36
aa(lp349
I36
aa(lp350
I36
aa(lp351
I36
aa(lp352
I36
aa(lp353
I36
aa(lp354
I36
aa(lp355
I36
aa(lp356
I36
aa(lp357
I36
aa(lp358
I36
aa(lp359
I36
aa(lp360
I36
aa(lp361
I36
aa(lp362
I36
aa(lp363
I36
aa(lp364
I36
aa(lp365
I36
aa(lp366
I36
aa(lp367
I36
aa(lp368
I36
aa(lp369
I36
aa(lp370
I36
aa(lp371
I36
aa(lp372
I36
aa(lp373
I36
aa(lp374
I36
aa(lp375
I36
aa(lp376
I36
aa(lp377
I36
aa(lp378
I36
aa(lp379
I36
aa(lp380
I36
aa(lp381
I36
aa(lp382
I36
aa(lp383
I36
aa(lp384
I36
aa(lp385
I36
aa(lp386
I36
aa(lp387
I36
aa(lp388
I36
aa(lp389
I36
aa(lp390
I36
aa(lp391
I36
aa(lp392
I36
aa(lp393
I36
aa(lp394
I36
aa(lp395
I36
aa(lp396
I36
aa(lp397
I36
aaa(lp398
(lp399
I42
aa(lp400
I42
aa(lp401
I42
aa(lp402
I42
aa(lp403
I42
aa(lp404
I42
aa(lp405
I42
aa(lp406
I42
aa(lp407
I42
aa(lp408
I42
aa(lp409
I42
aaa(lp410
(lp411
I45
aa(lp412
I45
aa(lp413
I45
aa(lp414
I45
aa(lp415
I45
aa(lp416
I45
aa(lp417
I45
aa(lp418
I45
aa(lp419
I45
aa(lp420
I45
aa(lp421
I45
aa(lp422
I45
aa(lp423
I45
aa(lp424
I45
aa(lp425
I45
aa(lp426
I45
aa(lp427
I45
aa(lp428
I45
aa(lp429
I45
aa(lp430
I45
aa(lp431
I45
aa(lp432
I45
aaa(lp433
(lp434
I46
aa(lp435
I46
aa(lp436
I46
aa(lp437
I46
aa(lp438
I46
aa(lp439
I46
aa(lp440
I46
aa(lp441
I46
aa(lp442
I46
aa(lp443
I46
aa(lp444
I46
aa(lp445
I46
aaa(lp446
(lp447
I47
aa(lp448
I47
aa(lp449
I47
aa(lp450
I47
aa(lp451
I47
aa(lp452
I47
aa(lp453
I47
aa(lp454
I47
aa(lp455
I47
aa(lp456
I47
aa(lp457
I47
aa(lp458
I47
aa(lp459
I47
aa(lp460
I47
aaa(lp461
(lp462
I50
aa(lp463
I50
aa(lp464
I50
aa(lp465
I50
aa(lp466
I50
aa(lp467
I50
aa(lp468
I50
aa(lp469
I50
aa(lp470
I50
aa(lp471
I50
aa(lp472
I50
aa(lp473
I50
aa(lp474
I50
aa(lp475
I50
aa(lp476
I50
aa(lp477
I50
aa(lp478
I50
aa(lp479
I50
aa(lp480
I50
aa(lp481
I50
aaa(lp482
(lp483
I52
aa(lp484
I52
aa(lp485
I52
aa(lp486
I52
aa(lp487
I52
aa(lp488
I52
aa(lp489
I52
aa(lp490
I52
aa(lp491
I52
aa(lp492
I52
aa(lp493
I52
aa(lp494
I52
aa(lp495
I52
aa(lp496
I52
aa(lp497
I52
aa(lp498
I52
aa(lp499
I52
aa(lp500
I52
aa(lp501
I52
aa(lp502
I52
aa(lp503
I52
aa(lp504
I52
aa(lp505
I52
aa(lp506
I52
aa(lp507
I52
aa(lp508
I52
aa(lp509
I52
aa(lp510
I52
aa(lp511
I52
aa(lp512
I52
aa(lp513
I52
aa(lp514
I52
aa(lp515
I52
aa(lp516
I52
aa(lp517
I52
aa(lp518
I52
aa(lp519
I52
aa(lp520
I52
aa(lp521
I52
aa(lp522
I52
aa(lp523
I52
aaa(lp524
(lp525
I54
aa(lp526
I54
aa(lp527
I54
aa(lp528
I54
aa(lp529
I54
aa(lp530
I54
aa(lp531
I54
aa(lp532
I54
aa(lp533
I54
aa(lp534
I54
aa(lp535
I54
aa(lp536
I54
aa(lp537
I54
aa(lp538
I54
aa(lp539
I54
aa(lp540
I54
aa(lp541
I54
aa(lp542
I54
aa(lp543
I54
aa(lp544
I54
aa(lp545
I54
aa(lp546
I54
aa(lp547
I54
aa(lp548
I54
aa(lp549
I54
aa(lp550
I54
aa(lp551
I54
aa(lp552
I54
aaa(lp553
(lp554
I55
aa(lp555
I55
aa(lp556
I55
aa(lp557
I55
aa(lp558
I55
aa(lp559
I55
aa(lp560
I55
aa(lp561
I55
aa(lp562
I55
aa(lp563
I55
aa(lp564
I55
aa(lp565
I55
aa(lp566
I55
aa(lp567
I55
aa(lp568
I55
aa(lp569
I55
aa(lp570
I55
aa(lp571
I55
aaa(lp572
(lp573
I60
aa(lp574
I60
aa(lp575
I60
aa(lp576
I60
aa(lp577
I60
aa(lp578
I60
aa(lp579
I60
aa(lp580
I60
aa(lp581
I60
aa(lp582
I60
aa(lp583
I60
aa(lp584
I60
aa(lp585
I60
aaa(lp586
(lp587
I61
aa(lp588
I61
aa(lp589
I61
aa(lp590
I61
aa(lp591
I61
aa(lp592
I61
aa(lp593
I61
aa(lp594
I61
aa(lp595
I61
aa(lp596
I61
aa(lp597
I61
aa(lp598
I61
aa(lp599
I61
aaa(lp600
(lp601
I65
aa(lp602
I65
aa(lp603
I65
aa(lp604
I65
aa(lp605
I65
aa(lp606
I65
aa(lp607
I65
aa(lp608
I65
aa(lp609
I65
aa(lp610
I65
aa(lp611
I65
aa(lp612
I65
aa(lp613
I65
aa(lp614
I65
aa(lp615
I65
aa(lp616
I65
aa(lp617
I65
aa(lp618
I65
aa(lp619
I65
aa(lp620
I65
aa(lp621
I65
aa(lp622
I65
aa(lp623
I65
aa(lp624
I65
aa(lp625
I65
aa(lp626
I65
aa(lp627
I65
aa(lp628
I65
aaa(lp629
(lp630
I67
aa(lp631
I67
aa(lp632
I67
aa(lp633
I67
aa(lp634
I67
aa(lp635
I67
aa(lp636
I67
aa(lp637
I67
aa(lp638
I67
aa(lp639
I67
aa(lp640
I67
aa(lp641
I67
aa(lp642
I67
aa(lp643
I67
aa(lp644
I67
aa(lp645
I67
aa(lp646
I67
aa(lp647
I67
aa(lp648
I67
aa(lp649
I67
aa(lp650
I67
aa(lp651
I67
aa(lp652
I67
aa(lp653
I67
aa(lp654
I67
aa(lp655
I67
aa(lp656
I67
aa(lp657
I67
aa(lp658
I67
aa(lp659
I67
aa(lp660
I67
aa(lp661
I67
aa(lp662
I67
aa(lp663
I67
aa(lp664
I67
aa(lp665
I67
aa(lp666
I67
aa(lp667
I67
aa(lp668
I67
aa(lp669
I67
aa(lp670
I67
aa(lp671
I67
aaa(lp672
(lp673
I69
aa(lp674
I69
aa(lp675
I69
aa(lp676
I69
aa(lp677
I69
aa(lp678
I69
aa(lp679
I69
aa(lp680
I69
aa(lp681
I69
aa(lp682
I69
aa(lp683
I69
aa(lp684
I69
aa(lp685
I69
aa(lp686
I69
aa(lp687
I69
aa(lp688
I69
aa(lp689
I69
aa(lp690
I69
aa(lp691
I69
aa(lp692
I69
aa(lp693
I69
aa(lp694
I69
aa(lp695
I69
aa(lp696
I69
aa(lp697
I69
aa(lp698
I69
aa(lp699
I69
aa(lp700
I69
aa(lp701
I69
aa(lp702
I69
aa(lp703
I69
aa(lp704
I69
aaa(lp705
(lp706
I71
aa(lp707
I71
aa(lp708
I71
aa(lp709
I71
aa(lp710
I71
aa(lp711
I71
aa(lp712
I71
aa(lp713
I71
aa(lp714
I71
aa(lp715
I71
aa(lp716
I71
aaa(lp717
(lp718
I72
aa(lp719
I72
aa(lp720
I72
aa(lp721
I72
aa(lp722
I72
aa(lp723
I72
aa(lp724
I72
aa(lp725
I72
aa(lp726
I72
aa(lp727
I72
aa(lp728
I72
aa(lp729
I72
aa(lp730
I72
aa(lp731
I72
aa(lp732
I72
aa(lp733
I72
aa(lp734
I72
aa(lp735
I72
aa(lp736
I72
aa(lp737
I72
aa(lp738
I72
aa(lp739
I72
aa(lp740
I72
aaa(lp741
(lp742
I73
aa(lp743
I73
aa(lp744
I73
aa(lp745
I73
aa(lp746
I73
aa(lp747
I73
aa(lp748
I73
aa(lp749
I73
aa(lp750
I73
aa(lp751
I73
aa(lp752
I73
aa(lp753
I73
aa(lp754
I73
aa(lp755
I73
aa(lp756
I73
aa(lp757
I73
aa(lp758
I73
aa(lp759
I73
aa(lp760
I73
aa(lp761
I73
aa(lp762
I73
aa(lp763
I73
aa(lp764
I73
aa(lp765
I73
aa(lp766
I73
aa(lp767
I73
aa(lp768
I73
aa(lp769
I73
aa(lp770
I73
aa(lp771
I73
aa(lp772
I73
aa(lp773
I73
aa(lp774
I73
aa(lp775
I73
aa(lp776
I73
aa(lp777
I73
aa(lp778
I73
aa(lp779
I73
aa(lp780
I73
aa(lp781
I73
aa(lp782
I73
aaa(lp783
(lp784
I74
aa(lp785
I74
aa(lp786
I74
aa(lp787
I74
aa(lp788
I74
aa(lp789
I74
aa(lp790
I74
aa(lp791
I74
aa(lp792
I74
aa(lp793
I74
aa(lp794
I74
aa(lp795
I74
aa(lp796
I74
aa(lp797
I74
aaa(lp798
(lp799
I79
aa(lp800
I79
aa(lp801
I79
aa(lp802
I79
aa(lp803
I79
aa(lp804
I79
aa(lp805
I79
aa(lp806
I79
aa(lp807
I79
aa(lp808
I79
aa(lp809
I79
aa(lp810
I79
aa(lp811
I79
aa(lp812
I79
aa(lp813
I79
aa(lp814
I79
aa(lp815
I79
aa(lp816
I79
aa(lp817
I79
aa(lp818
I79
aa(lp819
I79
aa(lp820
I79
aa(lp821
I79
aa(lp822
I79
aa(lp823
I79
aa(lp824
I79
aa(lp825
I79
aa(lp826
I79
aa(lp827
I79
aa(lp828
I79
aa(lp829
I79
aa(lp830
I79
aa(lp831
I79
aa(lp832
I79
aa(lp833
I79
aa(lp834
I79
aa(lp835
I79
aa(lp836
I79
aa(lp837
I79
aa(lp838
I79
aa(lp839
I79
aa(lp840
I79
aa(lp841
I79
aa(lp842
I79
aa(lp843
I79
aa(lp844
I79
aa(lp845
I79
aa(lp846
I79
aa(lp847
I79
aa(lp848
I79
aa(lp849
I79
aa(lp850
I79
aa(lp851
I79
aa(lp852
I79
aa(lp853
I79
aa(lp854
I79
aa(lp855
I79
aa(lp856
I79
aa(lp857
I79
aa(lp858
I79
aa(lp859
I79
aa(lp860
I79
aa(lp861
I79
aa(lp862
I79
aa(lp863
I79
aa(lp864
I79
aaa(lp865
(lp866
I80
aa(lp867
I80
aa(lp868
I80
aa(lp869
I80
aa(lp870
I80
aa(lp871
I80
aa(lp872
I80
aa(lp873
I80
aa(lp874
I80
aa(lp875
I80
aa(lp876
I80
aa(lp877
I80
aa(lp878
I80
aa(lp879
I80
aa(lp880
I80
aa(lp881
I80
aa(lp882
I80
aa(lp883
I80
aaa(lp884
(lp885
I83
aa(lp886
I83
aa(lp887
I83
aa(lp888
I83
aa(lp889
I83
aa(lp890
I83
aa(lp891
I83
aa(lp892
I83
aa(lp893
I83
aa(lp894
I83
aa(lp895
I83
aa(lp896
I83
aa(lp897
I83
aa(lp898
I83
aa(lp899
I83
aaa(lp900
(lp901
I90
aa(lp902
I90
aa(lp903
I90
aa(lp904
I90
aa(lp905
I90
aa(lp906
I90
aa(lp907
I90
aa(lp908
I90
aa(lp909
I90
aa(lp910
I90
aa(lp911
I90
aa(lp912
I90
aa(lp913
I90
aa(lp914
I90
aa(lp915
I90
aa(lp916
I90
aa(lp917
I90
aa(lp918
I90
aa(lp919
I90
aa(lp920
I90
aa(lp921
I90
aa(lp922
I90
aa(lp923
I90
aa(lp924
I90
aa(lp925
I90
aa(lp926
I90
aa(lp927
I90
aa(lp928
I90
aa(lp929
I90
aa(lp930
I90
aa(lp931
I90
aa(lp932
I90
aa(lp933
I90
aa(lp934
I90
aa(lp935
I90
aa(lp936
I90
aa(lp937
I90
aa(lp938
I90
aa(lp939
I90
aa(lp940
I90
aa(lp941
I90
aaa(lp942
(lp943
I92
aa(lp944
I92
aa(lp945
I92
aa(lp946
I92
aa(lp947
I92
aa(lp948
I92
aa(lp949
I92
aa(lp950
I92
aa(lp951
I92
aa(lp952
I92
aa(lp953
I92
aaa(lp954
(lp955
I94
aa(lp956
I94
aa(lp957
I94
aa(lp958
I94
aa(lp959
I94
aa(lp960
I94
aa(lp961
I94
aa(lp962
I94
aa(lp963
I94
aa(lp964
I94
aa(lp965
I94
aa(lp966
I94
aa(lp967
I94
aa(lp968
I94
aa(lp969
I94
aa(lp970
I94
aa(lp971
I94
aa(lp972
I94
aa(lp973
I94
aa(lp974
I94
aa(lp975
I94
aa(lp976
I94
aa(lp977
I94
aa(lp978
I94
aa(lp979
I94
aa(lp980
I94
aa(lp981
I94
aa(lp982
I94
aa(lp983
I94
aa(lp984
I94
aa(lp985
I94
aa(lp986
I94
aa(lp987
I94
aa(lp988
I94
aa(lp989
I94
aa(lp990
I94
aa(lp991
I94
aa(lp992
I94
aa(lp993
I94
aaa(lp994
(lp995
I96
aa(lp996
I96
aa(lp997
I96
aa(lp998
I96
aa(lp999
I96
aa(lp1000
I96
aa(lp1001
I96
aa(lp1002
I96
aa(lp1003
I96
aa(lp1004
I96
aa(lp1005
I96
aa(lp1006
I96
aa(lp1007
I96
aa(lp1008
I96
aa(lp1009
I96
aa(lp1010
I96
aa(lp1011
I96
aa(lp1012
I96
aa(lp1013
I96
aa(lp1014
I96
aa(lp1015
I96
aa(lp1016
I96
aa(lp1017
I96
aa(lp1018
I96
aa(lp1019
I96
aa(lp1020
I96
aa(lp1021
I96
aa(lp1022
I96
aa(lp1023
I96
aa(lp1024
I96
aa(lp1025
I96
aa(lp1026
I96
aa(lp1027
I96
aa(lp1028
I96
aa(lp1029
I96
aa(lp1030
I96
aa(lp1031
I96
aa(lp1032
I96
aa(lp1033
I96
aa(lp1034
I96
aa(lp1035
I96
aa(lp1036
I96
aa(lp1037
I96
aa(lp1038
I96
aa(lp1039
I96
aa(lp1040
I96
aa(lp1041
I96
aa(lp1042
I96
aa(lp1043
I96
aa(lp1044
I96
aaa(lp1045
(lp1046
I100
aa(lp1047
I100
aa(lp1048
I100
aa(lp1049
I100
aa(lp1050
I100
aa(lp1051
I100
aa(lp1052
I100
aa(lp1053
I100
aa(lp1054
I100
aa(lp1055
I100
aa(lp1056
I100
aa(lp1057
I100
aa(lp1058
I100
aa(lp1059
I100
aa(lp1060
I100
aa(lp1061
I100
aa(lp1062
I100
aa(lp1063
I100
aa(lp1064
I100
aa(lp1065
I100
aa(lp1066
I100
aa(lp1067
I100
aa(lp1068
I100
aa(lp1069
I100
aa(lp1070
I100
aa(lp1071
I100
aa(lp1072
I100
aa(lp1073
I100
aa(lp1074
I100
aa(lp1075
I100
aa(lp1076
I100
aa(lp1077
I100
aa(lp1078
I100
aa(lp1079
I100
aa(lp1080
I100
aa(lp1081
I100
aa(lp1082
I100
aa(lp1083
I100
aa(lp1084
I100
aa(lp1085
I100
aa(lp1086
I100
aa(lp1087
I100
aa(lp1088
I100
aa(lp1089
I100
aa(lp1090
I100
aa(lp1091
I100
aa(lp1092
I100
aa(lp1093
I100
aaa(lp1094
(lp1095
I103
aa(lp1096
I103
aa(lp1097
I103
aa(lp1098
I103
aa(lp1099
I103
aa(lp1100
I103
aa(lp1101
I103
aa(lp1102
I103
aa(lp1103
I103
aa(lp1104
I103
aa(lp1105
I103
aa(lp1106
I103
aa(lp1107
I103
aa(lp1108
I103
aa(lp1109
I103
aa(lp1110
I103
aa(lp1111
I103
aa(lp1112
I103
aa(lp1113
I103
aa(lp1114
I103
aa(lp1115
I103
aa(lp1116
I103
aa(lp1117
I103
aa(lp1118
I103
aa(lp1119
I103
aa(lp1120
I103
aa(lp1121
I103
aa(lp1122
I103
aa(lp1123
I103
aa(lp1124
I103
aa(lp1125
I103
aa(lp1126
I103
aaa(lp1127
(lp1128
I104
aa(lp1129
I104
aa(lp1130
I104
aa(lp1131
I104
aa(lp1132
I104
aa(lp1133
I104
aa(lp1134
I104
aa(lp1135
I104
aa(lp1136
I104
aa(lp1137
I104
aa(lp1138
I104
aa(lp1139
I104
aa(lp1140
I104
aa(lp1141
I104
aaa(lp1142
(lp1143
I105
aa(lp1144
I105
aa(lp1145
I105
aa(lp1146
I105
aa(lp1147
I105
aa(lp1148
I105
aa(lp1149
I105
aa(lp1150
I105
aa(lp1151
I105
aa(lp1152
I105
aa(lp1153
I105
aa(lp1154
I105
aa(lp1155
I105
aa(lp1156
I105
aa(lp1157
I105
aaa(lp1158
(lp1159
I106
aa(lp1160
I106
aa(lp1161
I106
aa(lp1162
I106
aa(lp1163
I106
aa(lp1164
I106
aa(lp1165
I106
aa(lp1166
I106
aa(lp1167
I106
aa(lp1168
I106
aaa.