(lp1
(lp2
(lp3
I3
aa(lp4
I3
aa(lp5
I3
aa(lp6
I3
aa(lp7
I3
aa(lp8
I3
aa(lp9
I3
aa(lp10
I3
aa(lp11
I3
aa(lp12
I3
aa(lp13
I3
aa(lp14
I3
aa(lp15
I3
aa(lp16
I3
aa(lp17
I3
aa(lp18
I3
aa(lp19
I3
aa(lp20
I3
aa(lp21
I3
aa(lp22
I3
aa(lp23
I3
aa(lp24
I3
aa(lp25
I3
aa(lp26
I3
aa(lp27
I3
aa(lp28
I3
aa(lp29
I3
aa(lp30
I3
aa(lp31
I3
aa(lp32
I3
aa(lp33
I3
aa(lp34
I3
aa(lp35
I3
aa(lp36
I3
aa(lp37
I3
aa(lp38
I3
aa(lp39
I3
aa(lp40
I3
aa(lp41
I3
aa(lp42
I3
aa(lp43
I3
aa(lp44
I3
aa(lp45
I3
aa(lp46
I3
aa(lp47
I3
aa(lp48
I3
aa(lp49
I3
aa(lp50
I3
aa(lp51
I3
aa(lp52
I3
aa(lp53
I3
aa(lp54
I3
aa(lp55
I3
aa(lp56
I3
aa(lp57
I3
aa(lp58
I3
aa(lp59
I3
aa(lp60
I3
aa(lp61
I3
aa(lp62
I3
aa(lp63
I3
aa(lp64
I3
aa(lp65
I3
aa(lp66
I3
aa(lp67
I3
aa(lp68
I3
aa(lp69
I3
aa(lp70
I3
aa(lp71
I3
aa(lp72
I3
aa(lp73
I3
aa(lp74
I3
aa(lp75
I3
aa(lp76
I3
aa(lp77
I3
aa(lp78
I3
aa(lp79
I3
aa(lp80
I3
aa(lp81
I3
aa(lp82
I3
aa(lp83
I3
aa(lp84
I3
aa(lp85
I3
aa(lp86
I3
aa(lp87
I3
aa(lp88
I3
aa(lp89
I3
aa(lp90
I3
aa(lp91
I3
aa(lp92
I3
aaa.