(lp1
(lp2
(lp3
I2
aa(lp4
I2
aa(lp5
I2
aa(lp6
I2
aa(lp7
I2
aa(lp8
I2
aa(lp9
I2
aa(lp10
I2
aa(lp11
I2
aa(lp12
I2
aa(lp13
I2
aa(lp14
I2
aa(lp15
I2
aa(lp16
I2
aa(lp17
I2
aa(lp18
I2
aa(lp19
I2
aa(lp20
I2
aaa(lp21
(lp22
I3
aa(lp23
I3
aa(lp24
I3
aa(lp25
I3
aa(lp26
I3
aa(lp27
I3
aa(lp28
I3
aa(lp29
I3
aa(lp30
I3
aa(lp31
I3
aaa(lp32
(lp33
I6
aa(lp34
I6
aa(lp35
I6
aa(lp36
I6
aa(lp37
I6
aa(lp38
I6
aa(lp39
I6
aa(lp40
I6
aa(lp41
I6
aa(lp42
I6
aa(lp43
I6
aa(lp44
I6
aa(lp45
I6
aa(lp46
I6
aa(lp47
I6
aa(lp48
I6
aa(lp49
I6
aa(lp50
I6
aa(lp51
I6
aa(lp52
I6
aaa(lp53
(lp54
I7
aa(lp55
I7
aa(lp56
I7
aa(lp57
I7
aa(lp58
I7
aa(lp59
I7
aa(lp60
I7
aa(lp61
I7
aa(lp62
I7
aa(lp63
I7
aa(lp64
I7
aa(lp65
I7
aaa(lp66
(lp67
I10
aa(lp68
I10
aa(lp69
I10
aa(lp70
I10
aa(lp71
I10
aa(lp72
I10
aa(lp73
I10
aa(lp74
I10
aa(lp75
I10
aa(lp76
I10
aa(lp77
I10
aa(lp78
I10
aa(lp79
I10
aa(lp80
I10
aa(lp81
I10
aa(lp82
I10
aa(lp83
I10
aa(lp84
I10
aa(lp85
I10
aa(lp86
I10
aa(lp87
I10
aaa(lp88
(lp89
I21
aa(lp90
I21
aa(lp91
I21
aa(lp92
I21
aa(lp93
I21
aa(lp94
I21
aa(lp95
I21
aa(lp96
I21
aa(lp97
I21
aa(lp98
I21
aaa(lp99
(lp100
I22
aa(lp101
I22
aa(lp102
I22
aa(lp103
I22
aa(lp104
I22
aa(lp105
I22
aa(lp106
I22
aa(lp107
I22
aa(lp108
I22
aa(lp109
I22
aa(lp110
I22
aa(lp111
I22
aa(lp112
I22
aa(lp113
I22
aa(lp114
I22
aa(lp115
I22
aa(lp116
I22
aa(lp117
I22
aaa.