(lp1
(lp2
(lp3
I3
aa(lp4
I3
aa(lp5
I3
aa(lp6
I3
aa(lp7
I3
aa(lp8
I3
aa(lp9
I3
aa(lp10
I3
aa(lp11
I3
aa(lp12
I3
aa(lp13
I3
aa(lp14
I3
aaa(lp15
(lp16
I6
aa(lp17
I6
aa(lp18
I6
aa(lp19
I6
aa(lp20
I6
aa(lp21
I6
aa(lp22
I6
aa(lp23
I6
aa(lp24
I6
aa(lp25
I6
aa(lp26
I6
aa(lp27
I6
aa(lp28
I6
aa(lp29
I6
aa(lp30
I6
aa(lp31
I6
aa(lp32
I6
aa(lp33
I6
aa(lp34
I6
aa(lp35
I6
aa(lp36
I6
aa(lp37
I6
aa(lp38
I6
aa(lp39
I6
aa(lp40
I6
aa(lp41
I6
aa(lp42
I6
aa(lp43
I6
aa(lp44
I6
aa(lp45
I6
aa(lp46
I6
aa(lp47
I6
aa(lp48
I6
aa(lp49
I6
aa(lp50
I6
aa(lp51
I6
aa(lp52
I6
aa(lp53
I6
aa(lp54
I6
aa(lp55
I6
aa(lp56
I6
aa(lp57
I6
aa(lp58
I6
aa(lp59
I6
aa(lp60
I6
aa(lp61
I6
aa(lp62
I6
aa(lp63
I6
aa(lp64
I6
aa(lp65
I6
aa(lp66
I6
aa(lp67
I6
aa(lp68
I6
aa(lp69
I6
aa(lp70
I6
aa(lp71
I6
aa(lp72
I6
aa(lp73
I6
aa(lp74
I6
aa(lp75
I6
aa(lp76
I6
aa(lp77
I6
aa(lp78
I6
aa(lp79
I6
aa(lp80
I6
aa(lp81
I6
aa(lp82
I6
aaa(lp83
(lp84
I9
aa(lp85
I9
aa(lp86
I9
aa(lp87
I9
aa(lp88
I9
aa(lp89
I9
aa(lp90
I9
aa(lp91
I9
aa(lp92
I9
aa(lp93
I9
aa(lp94
I9
aa(lp95
I9
aa(lp96
I9
aa(lp97
I9
aa(lp98
I9
aa(lp99
I9
aa(lp100
I9
aa(lp101
I9
aa(lp102
I9
aa(lp103
I9
aa(lp104
I9
aa(lp105
I9
aa(lp106
I9
aa(lp107
I9
aa(lp108
I9
aa(lp109
I9
aa(lp110
I9
aa(lp111
I9
aa(lp112
I9
aa(lp113
I9
aa(lp114
I9
aa(lp115
I9
aa(lp116
I9
aa(lp117
I9
aa(lp118
I9
aa(lp119
I9
aa(lp120
I9
aa(lp121
I9
aa(lp122
I9
aa(lp123
I9
aa(lp124
I9
aa(lp125
I9
aa(lp126
I9
aaa(lp127
(lp128
I13
aa(lp129
I13
aa(lp130
I13
aa(lp131
I13
aa(lp132
I13
aa(lp133
I13
aa(lp134
I13
aa(lp135
I13
aa(lp136
I13
aa(lp137
I13
aa(lp138
I13
aa(lp139
I13
aa(lp140
I13
aa(lp141
I13
aaa(lp142
(lp143
I14
aa(lp144
I14
aa(lp145
I14
aa(lp146
I14
aa(lp147
I14
aa(lp148
I14
aa(lp149
I14
aa(lp150
I14
aa(lp151
I14
aa(lp152
I14
aa(lp153
I14
aa(lp154
I14
aa(lp155
I14
aa(lp156
I14
aa(lp157
I14
aa(lp158
I14
aa(lp159
I14
aa(lp160
I14
aa(lp161
I14
aaa.