(lp1
(lp2
(lp3
I7
aa(lp4
I7
aa(lp5
I7
aa(lp6
I7
aa(lp7
I7
aa(lp8
I7
aa(lp9
I7
aa(lp10
I7
aa(lp11
I7
aa(lp12
I7
aa(lp13
I7
aa(lp14
I7
aa(lp15
I7
aa(lp16
I7
aa(lp17
I7
aa(lp18
I7
aa(lp19
I7
aaa(lp20
(lp21
I9
aa(lp22
I9
aa(lp23
I9
aa(lp24
I9
aa(lp25
I9
aa(lp26
I9
aa(lp27
I9
aa(lp28
I9
aa(lp29
I9
aa(lp30
I9
aa(lp31
I9
aa(lp32
I9
aaa.