(lp1
(lp2
(lp3
I7
aa(lp4
I7
aa(lp5
I7
aa(lp6
I7
aa(lp7
I7
aa(lp8
I7
aa(lp9
I7
aa(lp10
I7
aa(lp11
I7
aa(lp12
I7
aa(lp13
I7
aa(lp14
I7
aa(lp15
I7
aa(lp16
I7
aa(lp17
I7
aa(lp18
I7
aa(lp19
I7
aaa(lp20
(lp21
I9
aa(lp22
I9
aa(lp23
I9
aa(lp24
I9
aa(lp25
I9
aa(lp26
I9
aa(lp27
I9
aa(lp28
I9
aa(lp29
I9
aa(lp30
I9
aa(lp31
I9
aa(lp32
I9
aaa(lp33
(lp34
I10
aa(lp35
I10
aa(lp36
I10
aa(lp37
I10
aa(lp38
I10
aa(lp39
I10
aa(lp40
I10
aa(lp41
I10
aa(lp42
I10
aa(lp43
I10
aa(lp44
I10
aa(lp45
I10
aa(lp46
I10
aa(lp47
I10
aa(lp48
I10
aa(lp49
I10
aa(lp50
I10
aa(lp51
I10
aa(lp52
I10
aa(lp53
I10
aa(lp54
I10
aa(lp55
I10
aa(lp56
I10
aa(lp57
I10
aa(lp58
I10
aa(lp59
I10
aa(lp60
I10
aa(lp61
I10
aa(lp62
I10
aa(lp63
I10
aa(lp64
I10
aa(lp65
I10
aa(lp66
I10
aa(lp67
I10
aa(lp68
I10
aa(lp69
I10
aa(lp70
I10
aa(lp71
I10
aa(lp72
I10
aa(lp73
I10
aa(lp74
I10
aa(lp75
I10
aaa(lp76
(lp77
I11
aa(lp78
I11
aa(lp79
I11
aa(lp80
I11
aa(lp81
I11
aa(lp82
I11
aa(lp83
I11
aa(lp84
I11
aa(lp85
I11
aa(lp86
I11
aa(lp87
I11
aaa.