(lp1
(lp2
(lp3
(lp4
I3
aa(lp5
I3
aa(lp6
I3
aa(lp7
I3
aa(lp8
I3
aa(lp9
I3
aa(lp10
I3
aa(lp11
I3
aa(lp12
I3
aa(lp13
I3
aa(lp14
I3
aa(lp15
I3
aaa(lp16
(lp17
I6
aa(lp18
I6
aa(lp19
I6
aa(lp20
I6
aa(lp21
I6
aa(lp22
I6
aa(lp23
I6
aa(lp24
I6
aa(lp25
I6
aa(lp26
I6
aa(lp27
I6
aa(lp28
I6
aa(lp29
I6
aa(lp30
I6
aa(lp31
I6
aa(lp32
I6
aa(lp33
I6
aa(lp34
I6
aa(lp35
I6
aa(lp36
I6
aa(lp37
I6
aa(lp38
I6
aa(lp39
I6
aa(lp40
I6
aa(lp41
I6
aa(lp42
I6
aa(lp43
I6
aa(lp44
I6
aa(lp45
I6
aa(lp46
I6
aa(lp47
I6
aa(lp48
I6
aa(lp49
I6
aa(lp50
I6
aa(lp51
I6
aa(lp52
I6
aa(lp53
I6
aa(lp54
I6
aa(lp55
I6
aa(lp56
I6
aa(lp57
I6
aa(lp58
I6
aa(lp59
I6
aa(lp60
I6
aa(lp61
I6
aa(lp62
I6
aa(lp63
I6
aa(lp64
I6
aa(lp65
I6
aa(lp66
I6
aa(lp67
I6
aa(lp68
I6
aa(lp69
I6
aa(lp70
I6
aa(lp71
I6
aa(lp72
I6
aa(lp73
I6
aa(lp74
I6
aa(lp75
I6
aa(lp76
I6
aa(lp77
I6
aa(lp78
I6
aa(lp79
I6
aa(lp80
I6
aa(lp81
I6
aa(lp82
I6
aa(lp83
I6
aaa(lp84
(lp85
I9
aa(lp86
I9
aa(lp87
I9
aa(lp88
I9
aa(lp89
I9
aa(lp90
I9
aa(lp91
I9
aa(lp92
I9
aa(lp93
I9
aa(lp94
I9
aa(lp95
I9
aa(lp96
I9
aa(lp97
I9
aa(lp98
I9
aa(lp99
I9
aa(lp100
I9
aa(lp101
I9
aa(lp102
I9
aa(lp103
I9
aa(lp104
I9
aa(lp105
I9
aa(lp106
I9
aa(lp107
I9
aa(lp108
I9
aa(lp109
I9
aa(lp110
I9
aa(lp111
I9
aa(lp112
I9
aa(lp113
I9
aa(lp114
I9
aa(lp115
I9
aa(lp116
I9
aa(lp117
I9
aa(lp118
I9
aa(lp119
I9
aa(lp120
I9
aa(lp121
I9
aa(lp122
I9
aa(lp123
I9
aa(lp124
I9
aa(lp125
I9
aa(lp126
I9
aa(lp127
I9
aaa(lp128
(lp129
I13
aa(lp130
I13
aa(lp131
I13
aa(lp132
I13
aa(lp133
I13
aa(lp134
I13
aa(lp135
I13
aa(lp136
I13
aa(lp137
I13
aa(lp138
I13
aa(lp139
I13
aa(lp140
I13
aa(lp141
I13
aa(lp142
I13
aaa(lp143
(lp144
I14
aa(lp145
I14
aa(lp146
I14
aa(lp147
I14
aa(lp148
I14
aa(lp149
I14
aa(lp150
I14
aa(lp151
I14
aa(lp152
I14
aa(lp153
I14
aa(lp154
I14
aa(lp155
I14
aa(lp156
I14
aa(lp157
I14
aa(lp158
I14
aa(lp159
I14
aa(lp160
I14
aa(lp161
I14
aa(lp162
I14
aaa(lp163
(lp164
I16
aa(lp165
I16
aa(lp166
I16
aa(lp167
I16
aa(lp168
I16
aa(lp169
I16
aa(lp170
I16
aa(lp171
I16
aa(lp172
I16
aa(lp173
I16
aa(lp174
I16
aa(lp175
I16
aa(lp176
I16
aa(lp177
I16
aa(lp178
I16
aa(lp179
I16
aa(lp180
I16
aa(lp181
I16
aa(lp182
I16
aa(lp183
I16
aa(lp184
I16
aa(lp185
I16
aa(lp186
I16
aa(lp187
I16
aa(lp188
I16
aa(lp189
I16
aa(lp190
I16
aa(lp191
I16
aa(lp192
I16
aa(lp193
I16
aa(lp194
I16
aa(lp195
I16
aa(lp196
I16
aa(lp197
I16
aa(lp198
I16
aa(lp199
I16
aa(lp200
I16
aa(lp201
I16
aa(lp202
I16
aa(lp203
I16
aa(lp204
I16
aa(lp205
I16
aa(lp206
I16
aa(lp207
I16
aa(lp208
I16
aa(lp209
I16
aa(lp210
I16
aa(lp211
I16
aa(lp212
I16
aa(lp213
I16
aa(lp214
I16
aa(lp215
I16
aaa(lp216
(lp217
I19
aa(lp218
I19
aa(lp219
I19
aa(lp220
I19
aa(lp221
I19
aa(lp222
I19
aa(lp223
I19
aa(lp224
I19
aa(lp225
I19
aa(lp226
I19
aa(lp227
I19
aa(lp228
I19
aa(lp229
I19
aa(lp230
I19
aa(lp231
I19
aa(lp232
I19
aa(lp233
I19
aa(lp234
I19
aa(lp235
I19
aaa(lp236
(lp237
I21
aa(lp238
I21
aa(lp239
I21
aa(lp240
I21
aa(lp241
I21
aa(lp242
I21
aa(lp243
I21
aa(lp244
I21
aa(lp245
I21
aa(lp246
I21
aaa(lp247
(lp248
I23
aa(lp249
I23
aa(lp250
I23
aa(lp251
I23
aa(lp252
I23
aa(lp253
I23
aa(lp254
I23
aa(lp255
I23
aa(lp256
I23
aa(lp257
I23
aa(lp258
I23
aa(lp259
I23
aa(lp260
I23
aa(lp261
I23
aa(lp262
I23
aa(lp263
I23
aa(lp264
I23
aa(lp265
I23
aa(lp266
I23
aa(lp267
I23
aaa(lp268
(lp269
I28
aa(lp270
I28
aa(lp271
I28
aa(lp272
I28
aa(lp273
I28
aa(lp274
I28
aa(lp275
I28
aa(lp276
I28
aa(lp277
I28
aa(lp278
I28
aa(lp279
I28
aa(lp280
I28
aa(lp281
I28
aa(lp282
I28
aa(lp283
I28
aa(lp284
I28
aa(lp285
I28
aa(lp286
I28
aa(lp287
I28
aa(lp288
I28
aaa(lp289
(lp290
I30
aa(lp291
I30
aa(lp292
I30
aa(lp293
I30
aa(lp294
I30
aa(lp295
I30
aa(lp296
I30
aa(lp297
I30
aa(lp298
I30
aa(lp299
I30
aa(lp300
I30
aaa(lp301
(lp302
I32
aa(lp303
I32
aa(lp304
I32
aa(lp305
I32
aa(lp306
I32
aa(lp307
I32
aa(lp308
I32
aa(lp309
I32
aa(lp310
I32
aa(lp311
I32
aa(lp312
I32
aa(lp313
I32
aaa(lp314
(lp315
I36
aa(lp316
I36
aa(lp317
I36
aa(lp318
I36
aa(lp319
I36
aa(lp320
I36
aa(lp321
I36
aa(lp322
I36
aa(lp323
I36
aa(lp324
I36
aa(lp325
I36
aa(lp326
I36
aa(lp327
I36
aa(lp328
I36
aa(lp329
I36
aa(lp330
I36
aa(lp331
I36
aa(lp332
I36
aa(lp333
I36
aa(lp334
I36
aa(lp335
I36
aa(lp336
I36
aa(lp337
I36
aa(lp338
I36
aa(lp339
I36
aa(lp340
I36
aa(lp341
I36
aa(lp342
I36
aa(lp343
I36
aa(lp344
I36
aa(lp345
I36
aa(lp346
I36
aa(lp347
I36
aa(lp348
I36
aa(lp349
I36
aa(lp350
I36
aa(lp351
I36
aa(lp352
I36
aa(lp353
I36
aa(lp354
I36
aa(lp355
I36
aa(lp356
I36
aa(lp357
I36
aa(lp358
I36
aa(lp359
I36
aa(lp360
I36
aa(lp361
I36
aa(lp362
I36
aa(lp363
I36
aa(lp364
I36
aa(lp365
I36
aa(lp366
I36
aa(lp367
I36
aa(lp368
I36
aa(lp369
I36
aa(lp370
I36
aa(lp371
I36
aa(lp372
I36
aa(lp373
I36
aa(lp374
I36
aa(lp375
I36
aa(lp376
I36
aa(lp377
I36
aa(lp378
I36
aa(lp379
I36
aa(lp380
I36
aa(lp381
I36
aa(lp382
I36
aa(lp383
I36
aa(lp384
I36
aa(lp385
I36
aa(lp386
I36
aa(lp387
I36
aa(lp388
I36
aa(lp389
I36
aa(lp390
I36
aa(lp391
I36
aa(lp392
I36
aa(lp393
I36
aa(lp394
I36
aa(lp395
I36
aa(lp396
I36
aa(lp397
I36
aa(lp398
I36
aaa(lp399
(lp400
I42
aa(lp401
I42
aa(lp402
I42
aa(lp403
I42
aa(lp404
I42
aa(lp405
I42
aa(lp406
I42
aa(lp407
I42
aa(lp408
I42
aa(lp409
I42
aa(lp410
I42
aaa(lp411
(lp412
I45
aa(lp413
I45
aa(lp414
I45
aa(lp415
I45
aa(lp416
I45
aa(lp417
I45
aa(lp418
I45
aa(lp419
I45
aa(lp420
I45
aa(lp421
I45
aa(lp422
I45
aa(lp423
I45
aa(lp424
I45
aa(lp425
I45
aa(lp426
I45
aa(lp427
I45
aa(lp428
I45
aa(lp429
I45
aa(lp430
I45
aa(lp431
I45
aa(lp432
I45
aa(lp433
I45
aaa(lp434
(lp435
I46
aa(lp436
I46
aa(lp437
I46
aa(lp438
I46
aa(lp439
I46
aa(lp440
I46
aa(lp441
I46
aa(lp442
I46
aa(lp443
I46
aa(lp444
I46
aa(lp445
I46
aa(lp446
I46
aaa(lp447
(lp448
I47
aa(lp449
I47
aa(lp450
I47
aa(lp451
I47
aa(lp452
I47
aa(lp453
I47
aa(lp454
I47
aa(lp455
I47
aa(lp456
I47
aa(lp457
I47
aa(lp458
I47
aa(lp459
I47
aa(lp460
I47
aa(lp461
I47
aaa(lp462
(lp463
I50
aa(lp464
I50
aa(lp465
I50
aa(lp466
I50
aa(lp467
I50
aa(lp468
I50
aa(lp469
I50
aa(lp470
I50
aa(lp471
I50
aa(lp472
I50
aa(lp473
I50
aa(lp474
I50
aa(lp475
I50
aa(lp476
I50
aa(lp477
I50
aa(lp478
I50
aa(lp479
I50
aa(lp480
I50
aa(lp481
I50
aa(lp482
I50
aaa(lp483
(lp484
I52
aa(lp485
I52
aa(lp486
I52
aa(lp487
I52
aa(lp488
I52
aa(lp489
I52
aa(lp490
I52
aa(lp491
I52
aa(lp492
I52
aa(lp493
I52
aa(lp494
I52
aa(lp495
I52
aa(lp496
I52
aa(lp497
I52
aa(lp498
I52
aa(lp499
I52
aa(lp500
I52
aa(lp501
I52
aa(lp502
I52
aa(lp503
I52
aa(lp504
I52
aa(lp505
I52
aa(lp506
I52
aa(lp507
I52
aa(lp508
I52
aa(lp509
I52
aa(lp510
I52
aa(lp511
I52
aa(lp512
I52
aa(lp513
I52
aa(lp514
I52
aa(lp515
I52
aa(lp516
I52
aa(lp517
I52
aa(lp518
I52
aa(lp519
I52
aa(lp520
I52
aa(lp521
I52
aa(lp522
I52
aa(lp523
I52
aa(lp524
I52
aaa(lp525
(lp526
I54
aa(lp527
I54
aa(lp528
I54
aa(lp529
I54
aa(lp530
I54
aa(lp531
I54
aa(lp532
I54
aa(lp533
I54
aa(lp534
I54
aa(lp535
I54
aa(lp536
I54
aa(lp537
I54
aa(lp538
I54
aa(lp539
I54
aa(lp540
I54
aa(lp541
I54
aa(lp542
I54
aa(lp543
I54
aa(lp544
I54
aa(lp545
I54
aa(lp546
I54
aa(lp547
I54
aa(lp548
I54
aa(lp549
I54
aa(lp550
I54
aa(lp551
I54
aa(lp552
I54
aa(lp553
I54
aaa(lp554
(lp555
I55
aa(lp556
I55
aa(lp557
I55
aa(lp558
I55
aa(lp559
I55
aa(lp560
I55
aa(lp561
I55
aa(lp562
I55
aa(lp563
I55
aa(lp564
I55
aa(lp565
I55
aa(lp566
I55
aa(lp567
I55
aa(lp568
I55
aa(lp569
I55
aa(lp570
I55
aa(lp571
I55
aa(lp572
I55
aaa(lp573
(lp574
I60
aa(lp575
I60
aa(lp576
I60
aa(lp577
I60
aa(lp578
I60
aa(lp579
I60
aa(lp580
I60
aa(lp581
I60
aa(lp582
I60
aa(lp583
I60
aa(lp584
I60
aa(lp585
I60
aa(lp586
I60
aaa(lp587
(lp588
I61
aa(lp589
I61
aa(lp590
I61
aa(lp591
I61
aa(lp592
I61
aa(lp593
I61
aa(lp594
I61
aa(lp595
I61
aa(lp596
I61
aa(lp597
I61
aa(lp598
I61
aa(lp599
I61
aa(lp600
I61
aaa(lp601
(lp602
I65
aa(lp603
I65
aa(lp604
I65
aa(lp605
I65
aa(lp606
I65
aa(lp607
I65
aa(lp608
I65
aa(lp609
I65
aa(lp610
I65
aa(lp611
I65
aa(lp612
I65
aa(lp613
I65
aa(lp614
I65
aa(lp615
I65
aa(lp616
I65
aa(lp617
I65
aa(lp618
I65
aa(lp619
I65
aa(lp620
I65
aa(lp621
I65
aa(lp622
I65
aa(lp623
I65
aa(lp624
I65
aa(lp625
I65
aa(lp626
I65
aa(lp627
I65
aa(lp628
I65
aa(lp629
I65
aaa(lp630
(lp631
I67
aa(lp632
I67
aa(lp633
I67
aa(lp634
I67
aa(lp635
I67
aa(lp636
I67
aa(lp637
I67
aa(lp638
I67
aa(lp639
I67
aa(lp640
I67
aa(lp641
I67
aa(lp642
I67
aa(lp643
I67
aa(lp644
I67
aa(lp645
I67
aa(lp646
I67
aa(lp647
I67
aa(lp648
I67
aa(lp649
I67
aa(lp650
I67
aa(lp651
I67
aa(lp652
I67
aa(lp653
I67
aa(lp654
I67
aa(lp655
I67
aa(lp656
I67
aa(lp657
I67
aa(lp658
I67
aa(lp659
I67
aa(lp660
I67
aa(lp661
I67
aa(lp662
I67
aa(lp663
I67
aa(lp664
I67
aa(lp665
I67
aa(lp666
I67
aa(lp667
I67
aa(lp668
I67
aa(lp669
I67
aa(lp670
I67
aa(lp671
I67
aa(lp672
I67
aaa(lp673
(lp674
I69
aa(lp675
I69
aa(lp676
I69
aa(lp677
I69
aa(lp678
I69
aa(lp679
I69
aa(lp680
I69
aa(lp681
I69
aa(lp682
I69
aa(lp683
I69
aa(lp684
I69
aa(lp685
I69
aa(lp686
I69
aa(lp687
I69
aa(lp688
I69
aa(lp689
I69
aa(lp690
I69
aa(lp691
I69
aa(lp692
I69
aa(lp693
I69
aa(lp694
I69
aa(lp695
I69
aa(lp696
I69
aa(lp697
I69
aa(lp698
I69
aa(lp699
I69
aa(lp700
I69
aa(lp701
I69
aa(lp702
I69
aa(lp703
I69
aa(lp704
I69
aa(lp705
I69
aaa(lp706
(lp707
I71
aa(lp708
I71
aa(lp709
I71
aa(lp710
I71
aa(lp711
I71
aa(lp712
I71
aa(lp713
I71
aa(lp714
I71
aa(lp715
I71
aa(lp716
I71
aa(lp717
I71
aaa(lp718
(lp719
I72
aa(lp720
I72
aa(lp721
I72
aa(lp722
I72
aa(lp723
I72
aa(lp724
I72
aa(lp725
I72
aa(lp726
I72
aa(lp727
I72
aa(lp728
I72
aa(lp729
I72
aa(lp730
I72
aa(lp731
I72
aa(lp732
I72
aa(lp733
I72
aa(lp734
I72
aa(lp735
I72
aa(lp736
I72
aa(lp737
I72
aa(lp738
I72
aa(lp739
I72
aa(lp740
I72
aa(lp741
I72
aaa(lp742
(lp743
I73
aa(lp744
I73
aa(lp745
I73
aa(lp746
I73
aa(lp747
I73
aa(lp748
I73
aa(lp749
I73
aa(lp750
I73
aa(lp751
I73
aa(lp752
I73
aa(lp753
I73
aa(lp754
I73
aa(lp755
I73
aa(lp756
I73
aa(lp757
I73
aa(lp758
I73
aa(lp759
I73
aa(lp760
I73
aa(lp761
I73
aa(lp762
I73
aa(lp763
I73
aa(lp764
I73
aa(lp765
I73
aa(lp766
I73
aa(lp767
I73
aa(lp768
I73
aa(lp769
I73
aa(lp770
I73
aa(lp771
I73
aa(lp772
I73
aa(lp773
I73
aa(lp774
I73
aa(lp775
I73
aa(lp776
I73
aa(lp777
I73
aa(lp778
I73
aa(lp779
I73
aa(lp780
I73
aa(lp781
I73
aa(lp782
I73
aa(lp783
I73
aaa(lp784
(lp785
I74
aa(lp786
I74
aa(lp787
I74
aa(lp788
I74
aa(lp789
I74
aa(lp790
I74
aa(lp791
I74
aa(lp792
I74
aa(lp793
I74
aa(lp794
I74
aa(lp795
I74
aa(lp796
I74
aa(lp797
I74
aa(lp798
I74
aaa(lp799
(lp800
I79
aa(lp801
I79
aa(lp802
I79
aa(lp803
I79
aa(lp804
I79
aa(lp805
I79
aa(lp806
I79
aa(lp807
I79
aa(lp808
I79
aa(lp809
I79
aa(lp810
I79
aa(lp811
I79
aa(lp812
I79
aa(lp813
I79
aa(lp814
I79
aa(lp815
I79
aa(lp816
I79
aa(lp817
I79
aa(lp818
I79
aa(lp819
I79
aa(lp820
I79
aa(lp821
I79
aa(lp822
I79
aa(lp823
I79
aa(lp824
I79
aa(lp825
I79
aa(lp826
I79
aa(lp827
I79
aa(lp828
I79
aa(lp829
I79
aa(lp830
I79
aa(lp831
I79
aa(lp832
I79
aa(lp833
I79
aa(lp834
I79
aa(lp835
I79
aa(lp836
I79
aa(lp837
I79
aa(lp838
I79
aa(lp839
I79
aa(lp840
I79
aa(lp841
I79
aa(lp842
I79
aa(lp843
I79
aa(lp844
I79
aa(lp845
I79
aa(lp846
I79
aa(lp847
I79
aa(lp848
I79
aa(lp849
I79
aa(lp850
I79
aa(lp851
I79
aa(lp852
I79
aa(lp853
I79
aa(lp854
I79
aa(lp855
I79
aa(lp856
I79
aa(lp857
I79
aa(lp858
I79
aa(lp859
I79
aa(lp860
I79
aa(lp861
I79
aa(lp862
I79
aa(lp863
I79
aa(lp864
I79
aa(lp865
I79
aaa(lp866
(lp867
I80
aa(lp868
I80
aa(lp869
I80
aa(lp870
I80
aa(lp871
I80
aa(lp872
I80
aa(lp873
I80
aa(lp874
I80
aa(lp875
I80
aa(lp876
I80
aa(lp877
I80
aa(lp878
I80
aa(lp879
I80
aa(lp880
I80
aa(lp881
I80
aa(lp882
I80
aa(lp883
I80
aa(lp884
I80
aaa(lp885
(lp886
I83
aa(lp887
I83
aa(lp888
I83
aa(lp889
I83
aa(lp890
I83
aa(lp891
I83
aa(lp892
I83
aa(lp893
I83
aa(lp894
I83
aa(lp895
I83
aa(lp896
I83
aa(lp897
I83
aa(lp898
I83
aa(lp899
I83
aa(lp900
I83
aaa(lp901
(lp902
I90
aa(lp903
I90
aa(lp904
I90
aa(lp905
I90
aa(lp906
I90
aa(lp907
I90
aa(lp908
I90
aa(lp909
I90
aa(lp910
I90
aa(lp911
I90
aa(lp912
I90
aa(lp913
I90
aa(lp914
I90
aa(lp915
I90
aa(lp916
I90
aa(lp917
I90
aa(lp918
I90
aa(lp919
I90
aa(lp920
I90
aa(lp921
I90
aa(lp922
I90
aa(lp923
I90
aa(lp924
I90
aa(lp925
I90
aa(lp926
I90
aa(lp927
I90
aa(lp928
I90
aa(lp929
I90
aa(lp930
I90
aa(lp931
I90
aa(lp932
I90
aa(lp933
I90
aa(lp934
I90
aa(lp935
I90
aa(lp936
I90
aa(lp937
I90
aa(lp938
I90
aa(lp939
I90
aa(lp940
I90
aa(lp941
I90
aa(lp942
I90
aaa(lp943
(lp944
I92
aa(lp945
I92
aa(lp946
I92
aa(lp947
I92
aa(lp948
I92
aa(lp949
I92
aa(lp950
I92
aa(lp951
I92
aa(lp952
I92
aa(lp953
I92
aa(lp954
I92
aaa(lp955
(lp956
I94
aa(lp957
I94
aa(lp958
I94
aa(lp959
I94
aa(lp960
I94
aa(lp961
I94
aa(lp962
I94
aa(lp963
I94
aa(lp964
I94
aa(lp965
I94
aa(lp966
I94
aa(lp967
I94
aa(lp968
I94
aa(lp969
I94
aa(lp970
I94
aa(lp971
I94
aa(lp972
I94
aa(lp973
I94
aa(lp974
I94
aa(lp975
I94
aa(lp976
I94
aa(lp977
I94
aa(lp978
I94
aa(lp979
I94
aa(lp980
I94
aa(lp981
I94
aa(lp982
I94
aa(lp983
I94
aa(lp984
I94
aa(lp985
I94
aa(lp986
I94
aa(lp987
I94
aa(lp988
I94
aa(lp989
I94
aa(lp990
I94
aa(lp991
I94
aa(lp992
I94
aa(lp993
I94
aa(lp994
I94
aaa(lp995
(lp996
I96
aa(lp997
I96
aa(lp998
I96
aa(lp999
I96
aa(lp1000
I96
aa(lp1001
I96
aa(lp1002
I96
aa(lp1003
I96
aa(lp1004
I96
aa(lp1005
I96
aa(lp1006
I96
aa(lp1007
I96
aa(lp1008
I96
aa(lp1009
I96
aa(lp1010
I96
aa(lp1011
I96
aa(lp1012
I96
aa(lp1013
I96
aa(lp1014
I96
aa(lp1015
I96
aa(lp1016
I96
aa(lp1017
I96
aa(lp1018
I96
aa(lp1019
I96
aa(lp1020
I96
aa(lp1021
I96
aa(lp1022
I96
aa(lp1023
I96
aa(lp1024
I96
aa(lp1025
I96
aa(lp1026
I96
aa(lp1027
I96
aa(lp1028
I96
aa(lp1029
I96
aa(lp1030
I96
aa(lp1031
I96
aa(lp1032
I96
aa(lp1033
I96
aa(lp1034
I96
aa(lp1035
I96
aa(lp1036
I96
aa(lp1037
I96
aa(lp1038
I96
aa(lp1039
I96
aa(lp1040
I96
aa(lp1041
I96
aa(lp1042
I96
aa(lp1043
I96
aa(lp1044
I96
aa(lp1045
I96
aaa(lp1046
(lp1047
I100
aa(lp1048
I100
aa(lp1049
I100
aa(lp1050
I100
aa(lp1051
I100
aa(lp1052
I100
aa(lp1053
I100
aa(lp1054
I100
aa(lp1055
I100
aa(lp1056
I100
aa(lp1057
I100
aa(lp1058
I100
aa(lp1059
I100
aa(lp1060
I100
aa(lp1061
I100
aa(lp1062
I100
aa(lp1063
I100
aa(lp1064
I100
aa(lp1065
I100
aa(lp1066
I100
aa(lp1067
I100
aa(lp1068
I100
aa(lp1069
I100
aa(lp1070
I100
aa(lp1071
I100
aa(lp1072
I100
aa(lp1073
I100
aa(lp1074
I100
aa(lp1075
I100
aa(lp1076
I100
aa(lp1077
I100
aa(lp1078
I100
aa(lp1079
I100
aa(lp1080
I100
aa(lp1081
I100
aa(lp1082
I100
aa(lp1083
I100
aa(lp1084
I100
aa(lp1085
I100
aa(lp1086
I100
aa(lp1087
I100
aa(lp1088
I100
aa(lp1089
I100
aa(lp1090
I100
aa(lp1091
I100
aa(lp1092
I100
aa(lp1093
I100
aa(lp1094
I100
aaa(lp1095
(lp1096
I103
aa(lp1097
I103
aa(lp1098
I103
aa(lp1099
I103
aa(lp1100
I103
aa(lp1101
I103
aa(lp1102
I103
aa(lp1103
I103
aa(lp1104
I103
aa(lp1105
I103
aa(lp1106
I103
aa(lp1107
I103
aa(lp1108
I103
aa(lp1109
I103
aa(lp1110
I103
aa(lp1111
I103
aa(lp1112
I103
aa(lp1113
I103
aa(lp1114
I103
aa(lp1115
I103
aa(lp1116
I103
aa(lp1117
I103
aa(lp1118
I103
aa(lp1119
I103
aa(lp1120
I103
aa(lp1121
I103
aa(lp1122
I103
aa(lp1123
I103
aa(lp1124
I103
aa(lp1125
I103
aa(lp1126
I103
aa(lp1127
I103
aaa(lp1128
(lp1129
I104
aa(lp1130
I104
aa(lp1131
I104
aa(lp1132
I104
aa(lp1133
I104
aa(lp1134
I104
aa(lp1135
I104
aa(lp1136
I104
aa(lp1137
I104
aa(lp1138
I104
aa(lp1139
I104
aa(lp1140
I104
aa(lp1141
I104
aa(lp1142
I104
aaa(lp1143
(lp1144
I105
aa(lp1145
I105
aa(lp1146
I105
aa(lp1147
I105
aa(lp1148
I105
aa(lp1149
I105
aa(lp1150
I105
aa(lp1151
I105
aa(lp1152
I105
aa(lp1153
I105
aa(lp1154
I105
aa(lp1155
I105
aa(lp1156
I105
aa(lp1157
I105
aa(lp1158
I105
aaa(lp1159
(lp1160
I106
aa(lp1161
I106
aa(lp1162
I106
aa(lp1163
I106
aa(lp1164
I106
aa(lp1165
I106
aa(lp1166
I106
aa(lp1167
I106
aa(lp1168
I106
aa(lp1169
I106
aaa(lp1170
(lp1171
I109
aa(lp1172
I109
aa(lp1173
I109
aa(lp1174
I109
aa(lp1175
I109
aa(lp1176
I109
aa(lp1177
I109
aa(lp1178
I109
aa(lp1179
I109
aa(lp1180
I109
aa(lp1181
I109
aa(lp1182
I109
aa(lp1183
I109
aa(lp1184
I109
aa(lp1185
I109
aa(lp1186
I109
aa(lp1187
I109
aa(lp1188
I109
aa(lp1189
I109
aa(lp1190
I109
aa(lp1191
I109
aa(lp1192
I109
aa(lp1193
I109
aa(lp1194
I109
aaa(lp1195
(lp1196
I110
aa(lp1197
I110
aa(lp1198
I110
aa(lp1199
I110
aa(lp1200
I110
aa(lp1201
I110
aa(lp1202
I110
aa(lp1203
I110
aa(lp1204
I110
aa(lp1205
I110
aa(lp1206
I110
aa(lp1207
I110
aaa(lp1208
(lp1209
I113
aa(lp1210
I113
aa(lp1211
I113
aa(lp1212
I113
aa(lp1213
I113
aa(lp1214
I113
aa(lp1215
I113
aa(lp1216
I113
aa(lp1217
I113
aa(lp1218
I113
aaa(lp1219
(lp1220
I118
aa(lp1221
I118
aa(lp1222
I118
aa(lp1223
I118
aa(lp1224
I118
aa(lp1225
I118
aa(lp1226
I118
aa(lp1227
I118
aa(lp1228
I118
aa(lp1229
I118
aa(lp1230
I118
aa(lp1231
I118
aa(lp1232
I118
aa(lp1233
I118
aa(lp1234
I118
aa(lp1235
I118
aa(lp1236
I118
aa(lp1237
I118
aa(lp1238
I118
aa(lp1239
I118
aa(lp1240
I118
aa(lp1241
I118
aa(lp1242
I118
aa(lp1243
I118
aa(lp1244
I118
aa(lp1245
I118
aa(lp1246
I118
aa(lp1247
I118
aa(lp1248
I118
aa(lp1249
I118
aa(lp1250
I118
aa(lp1251
I118
aa(lp1252
I118
aa(lp1253
I118
aa(lp1254
I118
aa(lp1255
I118
aa(lp1256
I118
aa(lp1257
I118
aa(lp1258
I118
aa(lp1259
I118
aa(lp1260
I118
aa(lp1261
I118
aa(lp1262
I118
aa(lp1263
I118
aa(lp1264
I118
aa(lp1265
I118
aa(lp1266
I118
aa(lp1267
I118
aa(lp1268
I118
aa(lp1269
I118
aaa(lp1270
(lp1271
I122
aa(lp1272
I122
aa(lp1273
I122
aa(lp1274
I122
aa(lp1275
I122
aa(lp1276
I122
aa(lp1277
I122
aa(lp1278
I122
aa(lp1279
I122
aa(lp1280
I122
aa(lp1281
I122
aa(lp1282
I122
aa(lp1283
I122
aa(lp1284
I122
aa(lp1285
I122
aa(lp1286
I122
aa(lp1287
I122
aa(lp1288
I122
aa(lp1289
I122
aa(lp1290
I122
aa(lp1291
I122
aa(lp1292
I122
aa(lp1293
I122
aa(lp1294
I122
aa(lp1295
I122
aa(lp1296
I122
aa(lp1297
I122
aaa(lp1298
(lp1299
I123
aa(lp1300
I123
aa(lp1301
I123
aa(lp1302
I123
aa(lp1303
I123
aa(lp1304
I123
aa(lp1305
I123
aa(lp1306
I123
aa(lp1307
I123
aa(lp1308
I123
aa(lp1309
I123
aaaa(lp1310
(lp1311
(lp1312
I7
aa(lp1313
I7
aa(lp1314
I7
aa(lp1315
I7
aa(lp1316
I7
aa(lp1317
I7
aa(lp1318
I7
aa(lp1319
I7
aa(lp1320
I7
aa(lp1321
I7
aa(lp1322
I7
aa(lp1323
I7
aa(lp1324
I7
aa(lp1325
I7
aa(lp1326
I7
aa(lp1327
I7
aa(lp1328
I7
aaa(lp1329
(lp1330
I9
aa(lp1331
I9
aa(lp1332
I9
aa(lp1333
I9
aa(lp1334
I9
aa(lp1335
I9
aa(lp1336
I9
aa(lp1337
I9
aa(lp1338
I9
aa(lp1339
I9
aa(lp1340
I9
aa(lp1341
I9
aaa(lp1342
(lp1343
I10
aa(lp1344
I10
aa(lp1345
I10
aa(lp1346
I10
aa(lp1347
I10
aa(lp1348
I10
aa(lp1349
I10
aa(lp1350
I10
aa(lp1351
I10
aa(lp1352
I10
aa(lp1353
I10
aa(lp1354
I10
aa(lp1355
I10
aa(lp1356
I10
aa(lp1357
I10
aa(lp1358
I10
aa(lp1359
I10
aa(lp1360
I10
aa(lp1361
I10
aa(lp1362
I10
aa(lp1363
I10
aa(lp1364
I10
aa(lp1365
I10
aa(lp1366
I10
aa(lp1367
I10
aa(lp1368
I10
aa(lp1369
I10
aa(lp1370
I10
aa(lp1371
I10
aa(lp1372
I10
aa(lp1373
I10
aa(lp1374
I10
aa(lp1375
I10
aa(lp1376
I10
aa(lp1377
I10
aa(lp1378
I10
aa(lp1379
I10
aa(lp1380
I10
aa(lp1381
I10
aa(lp1382
I10
aa(lp1383
I10
aa(lp1384
I10
aaa(lp1385
(lp1386
I11
aa(lp1387
I11
aa(lp1388
I11
aa(lp1389
I11
aa(lp1390
I11
aa(lp1391
I11
aa(lp1392
I11
aa(lp1393
I11
aa(lp1394
I11
aa(lp1395
I11
aa(lp1396
I11
aaa(lp1397
(lp1398
I12
aa(lp1399
I12
aa(lp1400
I12
aa(lp1401
I12
aa(lp1402
I12
aa(lp1403
I12
aa(lp1404
I12
aa(lp1405
I12
aa(lp1406
I12
aa(lp1407
I12
aa(lp1408
I12
aa(lp1409
I12
aa(lp1410
I12
aa(lp1411
I12
aa(lp1412
I12
aa(lp1413
I12
aa(lp1414
I12
aa(lp1415
I12
aa(lp1416
I12
aa(lp1417
I12
aa(lp1418
I12
aa(lp1419
I12
aa(lp1420
I12
aa(lp1421
I12
aa(lp1422
I12
aa(lp1423
I12
aa(lp1424
I12
aa(lp1425
I12
aa(lp1426
I12
aa(lp1427
I12
aa(lp1428
I12
aa(lp1429
I12
aa(lp1430
I12
aa(lp1431
I12
aa(lp1432
I12
aa(lp1433
I12
aa(lp1434
I12
aa(lp1435
I12
aa(lp1436
I12
aa(lp1437
I12
aa(lp1438
I12
aa(lp1439
I12
aa(lp1440
I12
aa(lp1441
I12
aa(lp1442
I12
aa(lp1443
I12
aa(lp1444
I12
aa(lp1445
I12
aa(lp1446
I12
aa(lp1447
I12
aa(lp1448
I12
aa(lp1449
I12
aa(lp1450
I12
aa(lp1451
I12
aa(lp1452
I12
aa(lp1453
I12
aa(lp1454
I12
aa(lp1455
I12
aa(lp1456
I12
aa(lp1457
I12
aa(lp1458
I12
aa(lp1459
I12
aa(lp1460
I12
aa(lp1461
I12
aa(lp1462
I12
aa(lp1463
I12
aa(lp1464
I12
aa(lp1465
I12
aa(lp1466
I12
aa(lp1467
I12
aa(lp1468
I12
aa(lp1469
I12
aa(lp1470
I12
aa(lp1471
I12
aa(lp1472
I12
aa(lp1473
I12
aa(lp1474
I12
aa(lp1475
I12
aa(lp1476
I12
aa(lp1477
I12
aa(lp1478
I12
aa(lp1479
I12
aa(lp1480
I12
aaa(lp1481
(lp1482
I15
aa(lp1483
I15
aa(lp1484
I15
aa(lp1485
I15
aa(lp1486
I15
aa(lp1487
I15
aa(lp1488
I15
aa(lp1489
I15
aa(lp1490
I15
aa(lp1491
I15
aa(lp1492
I15
aa(lp1493
I15
aa(lp1494
I15
aa(lp1495
I15
aa(lp1496
I15
aa(lp1497
I15
aa(lp1498
I15
aa(lp1499
I15
aaa(lp1500
(lp1501
I16
aa(lp1502
I16
aa(lp1503
I16
aa(lp1504
I16
aa(lp1505
I16
aa(lp1506
I16
aa(lp1507
I16
aa(lp1508
I16
aa(lp1509
I16
aa(lp1510
I16
aa(lp1511
I16
aa(lp1512
I16
aa(lp1513
I16
aa(lp1514
I16
aa(lp1515
I16
aa(lp1516
I16
aa(lp1517
I16
aa(lp1518
I16
aa(lp1519
I16
aa(lp1520
I16
aa(lp1521
I16
aa(lp1522
I16
aa(lp1523
I16
aa(lp1524
I16
aa(lp1525
I16
aa(lp1526
I16
aa(lp1527
I16
aa(lp1528
I16
aa(lp1529
I16
aa(lp1530
I16
aa(lp1531
I16
aa(lp1532
I16
aa(lp1533
I16
aa(lp1534
I16
aa(lp1535
I16
aa(lp1536
I16
aa(lp1537
I16
aa(lp1538
I16
aa(lp1539
I16
aa(lp1540
I16
aa(lp1541
I16
aa(lp1542
I16
aa(lp1543
I16
aa(lp1544
I16
aa(lp1545
I16
aa(lp1546
I16
aa(lp1547
I16
aa(lp1548
I16
aa(lp1549
I16
aa(lp1550
I16
aa(lp1551
I16
aa(lp1552
I16
aa(lp1553
I16
aa(lp1554
I16
aa(lp1555
I16
aa(lp1556
I16
aa(lp1557
I16
aa(lp1558
I16
aa(lp1559
I16
aa(lp1560
I16
aa(lp1561
I16
aa(lp1562
I16
aa(lp1563
I16
aa(lp1564
I16
aa(lp1565
I16
aa(lp1566
I16
aa(lp1567
I16
aa(lp1568
I16
aa(lp1569
I16
aa(lp1570
I16
aa(lp1571
I16
aaa(lp1572
(lp1573
I17
aa(lp1574
I17
aa(lp1575
I17
aa(lp1576
I17
aa(lp1577
I17
aa(lp1578
I17
aa(lp1579
I17
aa(lp1580
I17
aa(lp1581
I17
aa(lp1582
I17
aa(lp1583
I17
aa(lp1584
I17
aa(lp1585
I17
aa(lp1586
I17
aa(lp1587
I17
aaa(lp1588
(lp1589
I18
aa(lp1590
I18
aa(lp1591
I18
aa(lp1592
I18
aa(lp1593
I18
aa(lp1594
I18
aa(lp1595
I18
aa(lp1596
I18
aa(lp1597
I18
aa(lp1598
I18
aaaa(lp1599
(lp1600
(lp1601
I1
aa(lp1602
I1
aa(lp1603
I1
aa(lp1604
I1
aa(lp1605
I1
aa(lp1606
I1
aa(lp1607
I1
aa(lp1608
I1
aa(lp1609
I1
aa(lp1610
I1
aa(lp1611
I1
aa(lp1612
I1
aa(lp1613
I1
aa(lp1614
I1
aa(lp1615
I1
aa(lp1616
I1
aaa(lp1617
(lp1618
I3
aa(lp1619
I3
aa(lp1620
I3
aa(lp1621
I3
aa(lp1622
I3
aa(lp1623
I3
aa(lp1624
I3
aa(lp1625
I3
aa(lp1626
I3
aa(lp1627
I3
aa(lp1628
I3
aa(lp1629
I3
aa(lp1630
I3
aa(lp1631
I3
aa(lp1632
I3
aa(lp1633
I3
aa(lp1634
I3
aa(lp1635
I3
aa(lp1636
I3
aa(lp1637
I3
aa(lp1638
I3
aa(lp1639
I3
aa(lp1640
I3
aa(lp1641
I3
aa(lp1642
I3
aa(lp1643
I3
aa(lp1644
I3
aa(lp1645
I3
aa(lp1646
I3
aa(lp1647
I3
aa(lp1648
I3
aa(lp1649
I3
aa(lp1650
I3
aa(lp1651
I3
aa(lp1652
I3
aa(lp1653
I3
aa(lp1654
I3
aa(lp1655
I3
aa(lp1656
I3
aa(lp1657
I3
aa(lp1658
I3
aa(lp1659
I3
aa(lp1660
I3
aa(lp1661
I3
aa(lp1662
I3
aa(lp1663
I3
aa(lp1664
I3
aa(lp1665
I3
aa(lp1666
I3
aa(lp1667
I3
aa(lp1668
I3
aa(lp1669
I3
aa(lp1670
I3
aa(lp1671
I3
aa(lp1672
I3
aa(lp1673
I3
aa(lp1674
I3
aa(lp1675
I3
aa(lp1676
I3
aa(lp1677
I3
aa(lp1678
I3
aa(lp1679
I3
aa(lp1680
I3
aa(lp1681
I3
aa(lp1682
I3
aa(lp1683
I3
aa(lp1684
I3
aa(lp1685
I3
aa(lp1686
I3
aa(lp1687
I3
aa(lp1688
I3
aa(lp1689
I3
aa(lp1690
I3
aa(lp1691
I3
aa(lp1692
I3
aa(lp1693
I3
aa(lp1694
I3
aa(lp1695
I3
aa(lp1696
I3
aa(lp1697
I3
aa(lp1698
I3
aa(lp1699
I3
aa(lp1700
I3
aa(lp1701
I3
aa(lp1702
I3
aa(lp1703
I3
aa(lp1704
I3
aa(lp1705
I3
aa(lp1706
I3
aa(lp1707
I3
aa(lp1708
I3
aa(lp1709
I3
aa(lp1710
I3
aa(lp1711
I3
aa(lp1712
I3
aa(lp1713
I3
aa(lp1714
I3
aa(lp1715
I3
aaa(lp1716
(lp1717
I4
aa(lp1718
I4
aa(lp1719
I4
aa(lp1720
I4
aa(lp1721
I4
aa(lp1722
I4
aa(lp1723
I4
aa(lp1724
I4
aa(lp1725
I4
aa(lp1726
I4
aaa(lp1727
(lp1728
I5
aa(lp1729
I5
aa(lp1730
I5
aa(lp1731
I5
aa(lp1732
I5
aa(lp1733
I5
aa(lp1734
I5
aa(lp1735
I5
aa(lp1736
I5
aa(lp1737
I5
aa(lp1738
I5
aa(lp1739
I5
aa(lp1740
I5
aa(lp1741
I5
aa(lp1742
I5
aa(lp1743
I5
aa(lp1744
I5
aa(lp1745
I5
aa(lp1746
I5
aa(lp1747
I5
aa(lp1748
I5
aa(lp1749
I5
aa(lp1750
I5
aa(lp1751
I5
aa(lp1752
I5
aa(lp1753
I5
aa(lp1754
I5
aa(lp1755
I5
aa(lp1756
I5
aaa(lp1757
(lp1758
I8
aa(lp1759
I8
aa(lp1760
I8
aa(lp1761
I8
aa(lp1762
I8
aa(lp1763
I8
aa(lp1764
I8
aa(lp1765
I8
aa(lp1766
I8
aa(lp1767
I8
aa(lp1768
I8
aa(lp1769
I8
aa(lp1770
I8
aa(lp1771
I8
aa(lp1772
I8
aaa(lp1773
(lp1774
I9
aa(lp1775
I9
aa(lp1776
I9
aa(lp1777
I9
aa(lp1778
I9
aa(lp1779
I9
aa(lp1780
I9
aa(lp1781
I9
aa(lp1782
I9
aa(lp1783
I9
aa(lp1784
I9
aa(lp1785
I9
aa(lp1786
I9
aa(lp1787
I9
aa(lp1788
I9
aa(lp1789
I9
aa(lp1790
I9
aa(lp1791
I9
aa(lp1792
I9
aa(lp1793
I9
aa(lp1794
I9
aa(lp1795
I9
aa(lp1796
I9
aa(lp1797
I9
aa(lp1798
I9
aa(lp1799
I9
aa(lp1800
I9
aa(lp1801
I9
aa(lp1802
I9
aa(lp1803
I9
aa(lp1804
I9
aa(lp1805
I9
aa(lp1806
I9
aa(lp1807
I9
aa(lp1808
I9
aa(lp1809
I9
aa(lp1810
I9
aa(lp1811
I9
aa(lp1812
I9
aa(lp1813
I9
aa(lp1814
I9
aa(lp1815
I9
aa(lp1816
I9
aa(lp1817
I9
aa(lp1818
I9
aa(lp1819
I9
aa(lp1820
I9
aa(lp1821
I9
aaa(lp1822
(lp1823
I10
aa(lp1824
I10
aa(lp1825
I10
aa(lp1826
I10
aa(lp1827
I10
aa(lp1828
I10
aa(lp1829
I10
aa(lp1830
I10
aa(lp1831
I10
aa(lp1832
I10
aa(lp1833
I10
aa(lp1834
I10
aa(lp1835
I10
aa(lp1836
I10
aa(lp1837
I10
aa(lp1838
I10
aa(lp1839
I10
aa(lp1840
I10
aa(lp1841
I10
aa(lp1842
I10
aa(lp1843
I10
aa(lp1844
I10
aa(lp1845
I10
aa(lp1846
I10
aa(lp1847
I10
aa(lp1848
I10
aa(lp1849
I10
aa(lp1850
I10
aa(lp1851
I10
aa(lp1852
I10
aa(lp1853
I10
aa(lp1854
I10
aa(lp1855
I10
aa(lp1856
I10
aa(lp1857
I10
aa(lp1858
I10
aa(lp1859
I10
aa(lp1860
I10
aa(lp1861
I10
aa(lp1862
I10
aa(lp1863
I10
aa(lp1864
I10
aa(lp1865
I10
aa(lp1866
I10
aa(lp1867
I10
aa(lp1868
I10
aa(lp1869
I10
aa(lp1870
I10
aa(lp1871
I10
aa(lp1872
I10
aa(lp1873
I10
aa(lp1874
I10
aa(lp1875
I10
aa(lp1876
I10
aa(lp1877
I10
aa(lp1878
I10
aa(lp1879
I10
aa(lp1880
I10
aa(lp1881
I10
aa(lp1882
I10
aa(lp1883
I10
aa(lp1884
I10
aa(lp1885
I10
aa(lp1886
I10
aa(lp1887
I10
aa(lp1888
I10
aa(lp1889
I10
aa(lp1890
I10
aa(lp1891
I10
aa(lp1892
I10
aa(lp1893
I10
aa(lp1894
I10
aa(lp1895
I10
aa(lp1896
I10
aa(lp1897
I10
aa(lp1898
I10
aa(lp1899
I10
aa(lp1900
I10
aa(lp1901
I10
aa(lp1902
I10
aa(lp1903
I10
aa(lp1904
I10
aa(lp1905
I10
aa(lp1906
I10
aaa(lp1907
(lp1908
I11
aa(lp1909
I11
aa(lp1910
I11
aa(lp1911
I11
aa(lp1912
I11
aa(lp1913
I11
aa(lp1914
I11
aa(lp1915
I11
aa(lp1916
I11
aa(lp1917
I11
aa(lp1918
I11
aa(lp1919
I11
aaa(lp1920
(lp1921
I14
aa(lp1922
I14
aa(lp1923
I14
aa(lp1924
I14
aa(lp1925
I14
aa(lp1926
I14
aa(lp1927
I14
aa(lp1928
I14
aa(lp1929
I14
aa(lp1930
I14
aa(lp1931
I14
aa(lp1932
I14
aa(lp1933
I14
aa(lp1934
I14
aa(lp1935
I14
aa(lp1936
I14
aa(lp1937
I14
aa(lp1938
I14
aa(lp1939
I14
aa(lp1940
I14
aa(lp1941
I14
aa(lp1942
I14
aa(lp1943
I14
aa(lp1944
I14
aa(lp1945
I14
aa(lp1946
I14
aa(lp1947
I14
aa(lp1948
I14
aa(lp1949
I14
aa(lp1950
I14
aa(lp1951
I14
aa(lp1952
I14
aa(lp1953
I14
aa(lp1954
I14
aaa(lp1955
(lp1956
I17
aa(lp1957
I17
aa(lp1958
I17
aa(lp1959
I17
aa(lp1960
I17
aa(lp1961
I17
aa(lp1962
I17
aa(lp1963
I17
aa(lp1964
I17
aa(lp1965
I17
aa(lp1966
I17
aa(lp1967
I17
aaa(lp1968
(lp1969
I19
aa(lp1970
I19
aa(lp1971
I19
aa(lp1972
I19
aa(lp1973
I19
aa(lp1974
I19
aa(lp1975
I19
aa(lp1976
I19
aa(lp1977
I19
aa(lp1978
I19
aa(lp1979
I19
aa(lp1980
I19
aa(lp1981
I19
aa(lp1982
I19
aa(lp1983
I19
aa(lp1984
I19
aa(lp1985
I19
aa(lp1986
I19
aa(lp1987
I19
aa(lp1988
I19
aa(lp1989
I19
aa(lp1990
I19
aa(lp1991
I19
aa(lp1992
I19
aa(lp1993
I19
aa(lp1994
I19
aa(lp1995
I19
aa(lp1996
I19
aa(lp1997
I19
aa(lp1998
I19
aa(lp1999
I19
aa(lp2000
I19
aa(lp2001
I19
aa(lp2002
I19
aa(lp2003
I19
aa(lp2004
I19
aa(lp2005
I19
aa(lp2006
I19
aa(lp2007
I19
aa(lp2008
I19
aa(lp2009
I19
aaa(lp2010
(lp2011
I22
aa(lp2012
I22
aa(lp2013
I22
aa(lp2014
I22
aa(lp2015
I22
aa(lp2016
I22
aa(lp2017
I22
aa(lp2018
I22
aa(lp2019
I22
aa(lp2020
I22
aa(lp2021
I22
aa(lp2022
I22
aa(lp2023
I22
aa(lp2024
I22
aa(lp2025
I22
aa(lp2026
I22
aa(lp2027
I22
aa(lp2028
I22
aa(lp2029
I22
aa(lp2030
I22
aa(lp2031
I22
aa(lp2032
I22
aa(lp2033
I22
aa(lp2034
I22
aa(lp2035
I22
aa(lp2036
I22
aa(lp2037
I22
aa(lp2038
I22
aa(lp2039
I22
aa(lp2040
I22
aa(lp2041
I22
aa(lp2042
I22
aa(lp2043
I22
aa(lp2044
I22
aa(lp2045
I22
aa(lp2046
I22
aa(lp2047
I22
aa(lp2048
I22
aa(lp2049
I22
aa(lp2050
I22
aa(lp2051
I22
aa(lp2052
I22
aa(lp2053
I22
aa(lp2054
I22
aa(lp2055
I22
aa(lp2056
I22
aa(lp2057
I22
aa(lp2058
I22
aa(lp2059
I22
aa(lp2060
I22
aa(lp2061
I22
aa(lp2062
I22
aa(lp2063
I22
aa(lp2064
I22
aa(lp2065
I22
aa(lp2066
I22
aa(lp2067
I22
aa(lp2068
I22
aa(lp2069
I22
aa(lp2070
I22
aa(lp2071
I22
aa(lp2072
I22
aaa(lp2073
(lp2074
I23
aa(lp2075
I23
aa(lp2076
I23
aa(lp2077
I23
aa(lp2078
I23
aa(lp2079
I23
aa(lp2080
I23
aa(lp2081
I23
aa(lp2082
I23
aa(lp2083
I23
aa(lp2084
I23
aa(lp2085
I23
aa(lp2086
I23
aa(lp2087
I23
aa(lp2088
I23
aa(lp2089
I23
aa(lp2090
I23
aa(lp2091
I23
aa(lp2092
I23
aa(lp2093
I23
aa(lp2094
I23
aa(lp2095
I23
aaa(lp2096
(lp2097
I27
aa(lp2098
I27
aa(lp2099
I27
aa(lp2100
I27
aa(lp2101
I27
aa(lp2102
I27
aa(lp2103
I27
aa(lp2104
I27
aa(lp2105
I27
aa(lp2106
I27
aa(lp2107
I27
aaa(lp2108
(lp2109
I28
aa(lp2110
I28
aa(lp2111
I28
aa(lp2112
I28
aa(lp2113
I28
aa(lp2114
I28
aa(lp2115
I28
aa(lp2116
I28
aa(lp2117
I28
aa(lp2118
I28
aa(lp2119
I28
aa(lp2120
I28
aa(lp2121
I28
aa(lp2122
I28
aa(lp2123
I28
aa(lp2124
I28
aa(lp2125
I28
aa(lp2126
I28
aa(lp2127
I28
aa(lp2128
I28
aaa(lp2129
(lp2130
I29
aa(lp2131
I29
aa(lp2132
I29
aa(lp2133
I29
aa(lp2134
I29
aa(lp2135
I29
aa(lp2136
I29
aa(lp2137
I29
aa(lp2138
I29
aa(lp2139
I29
aa(lp2140
I29
aa(lp2141
I29
aa(lp2142
I29
aa(lp2143
I29
aa(lp2144
I29
aa(lp2145
I29
aa(lp2146
I29
aa(lp2147
I29
aa(lp2148
I29
aa(lp2149
I29
aa(lp2150
I29
aa(lp2151
I29
aaa(lp2152
(lp2153
I30
aa(lp2154
I30
aa(lp2155
I30
aa(lp2156
I30
aa(lp2157
I30
aa(lp2158
I30
aa(lp2159
I30
aa(lp2160
I30
aa(lp2161
I30
aa(lp2162
I30
aa(lp2163
I30
aa(lp2164
I30
aa(lp2165
I30
aa(lp2166
I30
aa(lp2167
I30
aa(lp2168
I30
aa(lp2169
I30
aa(lp2170
I30
aa(lp2171
I30
aa(lp2172
I30
aa(lp2173
I30
aa(lp2174
I30
aa(lp2175
I30
aa(lp2176
I30
aa(lp2177
I30
aa(lp2178
I30
aa(lp2179
I30
aa(lp2180
I30
aa(lp2181
I30
aa(lp2182
I30
aa(lp2183
I30
aa(lp2184
I30
aa(lp2185
I30
aa(lp2186
I30
aa(lp2187
I30
aa(lp2188
I30
aa(lp2189
I30
aa(lp2190
I30
aa(lp2191
I30
aa(lp2192
I30
aa(lp2193
I30
aa(lp2194
I30
aa(lp2195
I30
aa(lp2196
I30
aa(lp2197
I30
aa(lp2198
I30
aa(lp2199
I30
aa(lp2200
I30
aa(lp2201
I30
aa(lp2202
I30
aa(lp2203
I30
aa(lp2204
I30
aa(lp2205
I30
aa(lp2206
I30
aa(lp2207
I30
aa(lp2208
I30
aa(lp2209
I30
aa(lp2210
I30
aa(lp2211
I30
aa(lp2212
I30
aa(lp2213
I30
aa(lp2214
I30
aaa(lp2215
(lp2216
I32
aa(lp2217
I32
aa(lp2218
I32
aa(lp2219
I32
aa(lp2220
I32
aa(lp2221
I32
aa(lp2222
I32
aa(lp2223
I32
aa(lp2224
I32
aa(lp2225
I32
aa(lp2226
I32
aa(lp2227
I32
aa(lp2228
I32
aaa(lp2229
(lp2230
I33
aa(lp2231
I33
aa(lp2232
I33
aa(lp2233
I33
aa(lp2234
I33
aa(lp2235
I33
aa(lp2236
I33
aa(lp2237
I33
aa(lp2238
I33
aa(lp2239
I33
aa(lp2240
I33
aa(lp2241
I33
aa(lp2242
I33
aa(lp2243
I33
aa(lp2244
I33
aa(lp2245
I33
aa(lp2246
I33
aa(lp2247
I33
aa(lp2248
I33
aa(lp2249
I33
aa(lp2250
I33
aa(lp2251
I33
aa(lp2252
I33
aaa(lp2253
(lp2254
I34
aa(lp2255
I34
aa(lp2256
I34
aa(lp2257
I34
aa(lp2258
I34
aa(lp2259
I34
aa(lp2260
I34
aa(lp2261
I34
aa(lp2262
I34
aa(lp2263
I34
aa(lp2264
I34
aa(lp2265
I34
aa(lp2266
I34
aa(lp2267
I34
aa(lp2268
I34
aa(lp2269
I34
aa(lp2270
I34
aa(lp2271
I34
aa(lp2272
I34
aa(lp2273
I34
aa(lp2274
I34
aa(lp2275
I34
aa(lp2276
I34
aa(lp2277
I34
aa(lp2278
I34
aa(lp2279
I34
aa(lp2280
I34
aa(lp2281
I34
aa(lp2282
I34
aa(lp2283
I34
aa(lp2284
I34
aaa(lp2285
(lp2286
I38
aa(lp2287
I38
aa(lp2288
I38
aa(lp2289
I38
aa(lp2290
I38
aa(lp2291
I38
aa(lp2292
I38
aa(lp2293
I38
aa(lp2294
I38
aa(lp2295
I38
aaa(lp2296
(lp2297
I40
aa(lp2298
I40
aa(lp2299
I40
aa(lp2300
I40
aa(lp2301
I40
aa(lp2302
I40
aa(lp2303
I40
aa(lp2304
I40
aa(lp2305
I40
aa(lp2306
I40
aa(lp2307
I40
aa(lp2308
I40
aa(lp2309
I40
aa(lp2310
I40
aa(lp2311
I40
aa(lp2312
I40
aa(lp2313
I40
aa(lp2314
I40
aa(lp2315
I40
aa(lp2316
I40
aa(lp2317
I40
aa(lp2318
I40
aa(lp2319
I40
aaa(lp2320
(lp2321
I41
aa(lp2322
I41
aa(lp2323
I41
aa(lp2324
I41
aa(lp2325
I41
aa(lp2326
I41
aa(lp2327
I41
aa(lp2328
I41
aa(lp2329
I41
aa(lp2330
I41
aa(lp2331
I41
aa(lp2332
I41
aa(lp2333
I41
aa(lp2334
I41
aa(lp2335
I41
aa(lp2336
I41
aa(lp2337
I41
aa(lp2338
I41
aa(lp2339
I41
aa(lp2340
I41
aaaa(lp2341
(lp2342
(lp2343
I3
aa(lp2344
I3
aa(lp2345
I3
aa(lp2346
I3
aa(lp2347
I3
aa(lp2348
I3
aa(lp2349
I3
aa(lp2350
I3
aa(lp2351
I3
aa(lp2352
I3
aa(lp2353
I3
aa(lp2354
I3
aa(lp2355
I3
aa(lp2356
I3
aa(lp2357
I3
aa(lp2358
I3
aa(lp2359
I3
aa(lp2360
I3
aa(lp2361
I3
aa(lp2362
I3
aa(lp2363
I3
aa(lp2364
I3
aa(lp2365
I3
aa(lp2366
I3
aa(lp2367
I3
aa(lp2368
I3
aa(lp2369
I3
aa(lp2370
I3
aa(lp2371
I3
aa(lp2372
I3
aa(lp2373
I3
aa(lp2374
I3
aa(lp2375
I3
aa(lp2376
I3
aa(lp2377
I3
aa(lp2378
I3
aa(lp2379
I3
aa(lp2380
I3
aa(lp2381
I3
aa(lp2382
I3
aa(lp2383
I3
aa(lp2384
I3
aa(lp2385
I3
aa(lp2386
I3
aa(lp2387
I3
aa(lp2388
I3
aa(lp2389
I3
aa(lp2390
I3
aa(lp2391
I3
aa(lp2392
I3
aa(lp2393
I3
aa(lp2394
I3
aa(lp2395
I3
aa(lp2396
I3
aa(lp2397
I3
aa(lp2398
I3
aa(lp2399
I3
aa(lp2400
I3
aa(lp2401
I3
aa(lp2402
I3
aa(lp2403
I3
aa(lp2404
I3
aa(lp2405
I3
aa(lp2406
I3
aa(lp2407
I3
aa(lp2408
I3
aa(lp2409
I3
aa(lp2410
I3
aa(lp2411
I3
aa(lp2412
I3
aa(lp2413
I3
aa(lp2414
I3
aa(lp2415
I3
aa(lp2416
I3
aa(lp2417
I3
aa(lp2418
I3
aa(lp2419
I3
aa(lp2420
I3
aa(lp2421
I3
aa(lp2422
I3
aa(lp2423
I3
aa(lp2424
I3
aa(lp2425
I3
aa(lp2426
I3
aa(lp2427
I3
aa(lp2428
I3
aa(lp2429
I3
aa(lp2430
I3
aa(lp2431
I3
aa(lp2432
I3
aaa(lp2433
(lp2434
I5
aa(lp2435
I5
aa(lp2436
I5
aa(lp2437
I5
aa(lp2438
I5
aa(lp2439
I5
aa(lp2440
I5
aa(lp2441
I5
aa(lp2442
I5
aa(lp2443
I5
aa(lp2444
I5
aa(lp2445
I5
aa(lp2446
I5
aa(lp2447
I5
aa(lp2448
I5
aa(lp2449
I5
aa(lp2450
I5
aa(lp2451
I5
aa(lp2452
I5
aa(lp2453
I5
aa(lp2454
I5
aa(lp2455
I5
aa(lp2456
I5
aa(lp2457
I5
aa(lp2458
I5
aa(lp2459
I5
aa(lp2460
I5
aa(lp2461
I5
aa(lp2462
I5
aa(lp2463
I5
aa(lp2464
I5
aa(lp2465
I5
aa(lp2466
I5
aa(lp2467
I5
aa(lp2468
I5
aa(lp2469
I5
aa(lp2470
I5
aa(lp2471
I5
aa(lp2472
I5
aa(lp2473
I5
aa(lp2474
I5
aa(lp2475
I5
aa(lp2476
I5
aa(lp2477
I5
aa(lp2478
I5
aa(lp2479
I5
aa(lp2480
I5
aa(lp2481
I5
aa(lp2482
I5
aa(lp2483
I5
aa(lp2484
I5
aa(lp2485
I5
aa(lp2486
I5
aa(lp2487
I5
aaa(lp2488
(lp2489
I7
aa(lp2490
I7
aa(lp2491
I7
aa(lp2492
I7
aa(lp2493
I7
aa(lp2494
I7
aa(lp2495
I7
aa(lp2496
I7
aa(lp2497
I7
aa(lp2498
I7
aa(lp2499
I7
aa(lp2500
I7
aa(lp2501
I7
aa(lp2502
I7
aa(lp2503
I7
aa(lp2504
I7
aa(lp2505
I7
aa(lp2506
I7
aa(lp2507
I7
aa(lp2508
I7
aa(lp2509
I7
aa(lp2510
I7
aa(lp2511
I7
aa(lp2512
I7
aa(lp2513
I7
aa(lp2514
I7
aa(lp2515
I7
aa(lp2516
I7
aa(lp2517
I7
aa(lp2518
I7
aa(lp2519
I7
aa(lp2520
I7
aa(lp2521
I7
aa(lp2522
I7
aaa(lp2523
(lp2524
I8
aa(lp2525
I8
aa(lp2526
I8
aa(lp2527
I8
aa(lp2528
I8
aa(lp2529
I8
aa(lp2530
I8
aa(lp2531
I8
aa(lp2532
I8
aa(lp2533
I8
aa(lp2534
I8
aa(lp2535
I8
aa(lp2536
I8
aa(lp2537
I8
aa(lp2538
I8
aa(lp2539
I8
aa(lp2540
I8
aa(lp2541
I8
aa(lp2542
I8
aa(lp2543
I8
aa(lp2544
I8
aa(lp2545
I8
aa(lp2546
I8
aa(lp2547
I8
aa(lp2548
I8
aa(lp2549
I8
aa(lp2550
I8
aa(lp2551
I8
aa(lp2552
I8
aa(lp2553
I8
aa(lp2554
I8
aa(lp2555
I8
aa(lp2556
I8
aa(lp2557
I8
aa(lp2558
I8
aa(lp2559
I8
aa(lp2560
I8
aa(lp2561
I8
aa(lp2562
I8
aa(lp2563
I8
aa(lp2564
I8
aa(lp2565
I8
aa(lp2566
I8
aa(lp2567
I8
aa(lp2568
I8
aa(lp2569
I8
aa(lp2570
I8
aa(lp2571
I8
aa(lp2572
I8
aa(lp2573
I8
aa(lp2574
I8
aaa(lp2575
(lp2576
I10
aa(lp2577
I10
aa(lp2578
I10
aa(lp2579
I10
aa(lp2580
I10
aa(lp2581
I10
aa(lp2582
I10
aa(lp2583
I10
aa(lp2584
I10
aa(lp2585
I10
aa(lp2586
I10
aa(lp2587
I10
aa(lp2588
I10
aa(lp2589
I10
aa(lp2590
I10
aa(lp2591
I10
aaa(lp2592
(lp2593
I16
aa(lp2594
I16
aa(lp2595
I16
aa(lp2596
I16
aa(lp2597
I16
aa(lp2598
I16
aa(lp2599
I16
aa(lp2600
I16
aa(lp2601
I16
aa(lp2602
I16
aa(lp2603
I16
aa(lp2604
I16
aa(lp2605
I16
aa(lp2606
I16
aa(lp2607
I16
aa(lp2608
I16
aa(lp2609
I16
aa(lp2610
I16
aa(lp2611
I16
aa(lp2612
I16
aa(lp2613
I16
aaaa(lp2614
(lp2615
(lp2616
I1
aa(lp2617
I1
aa(lp2618
I1
aa(lp2619
I1
aa(lp2620
I1
aa(lp2621
I1
aa(lp2622
I1
aa(lp2623
I1
aa(lp2624
I1
aa(lp2625
I1
aa(lp2626
I1
aa(lp2627
I1
aa(lp2628
I1
aa(lp2629
I1
aa(lp2630
I1
aa(lp2631
I1
aa(lp2632
I1
aa(lp2633
I1
aa(lp2634
I1
aa(lp2635
I1
aa(lp2636
I1
aa(lp2637
I1
aa(lp2638
I1
aa(lp2639
I1
aa(lp2640
I1
aa(lp2641
I1
aa(lp2642
I1
aa(lp2643
I1
aa(lp2644
I1
aa(lp2645
I1
aa(lp2646
I1
aa(lp2647
I1
aa(lp2648
I1
aa(lp2649
I1
aa(lp2650
I1
aa(lp2651
I1
aa(lp2652
I1
aa(lp2653
I1
aa(lp2654
I1
aa(lp2655
I1
aa(lp2656
I1
aa(lp2657
I1
aa(lp2658
I1
aa(lp2659
I1
aa(lp2660
I1
aa(lp2661
I1
aa(lp2662
I1
aa(lp2663
I1
aa(lp2664
I1
aa(lp2665
I1
aa(lp2666
I1
aa(lp2667
I1
aa(lp2668
I1
aa(lp2669
I1
aa(lp2670
I1
aa(lp2671
I1
aa(lp2672
I1
aa(lp2673
I1
aa(lp2674
I1
aa(lp2675
I1
aa(lp2676
I1
aa(lp2677
I1
aa(lp2678
I1
aa(lp2679
I1
aa(lp2680
I1
aa(lp2681
I1
aa(lp2682
I1
aa(lp2683
I1
aa(lp2684
I1
aaa(lp2685
(lp2686
I4
aa(lp2687
I4
aa(lp2688
I4
aa(lp2689
I4
aa(lp2690
I4
aa(lp2691
I4
aa(lp2692
I4
aa(lp2693
I4
aa(lp2694
I4
aa(lp2695
I4
aa(lp2696
I4
aa(lp2697
I4
aa(lp2698
I4
aa(lp2699
I4
aa(lp2700
I4
aa(lp2701
I4
aa(lp2702
I4
aa(lp2703
I4
aaa(lp2704
(lp2705
I5
aa(lp2706
I5
aa(lp2707
I5
aa(lp2708
I5
aa(lp2709
I5
aa(lp2710
I5
aa(lp2711
I5
aa(lp2712
I5
aa(lp2713
I5
aa(lp2714
I5
aa(lp2715
I5
aa(lp2716
I5
aa(lp2717
I5
aa(lp2718
I5
aa(lp2719
I5
aa(lp2720
I5
aa(lp2721
I5
aa(lp2722
I5
aa(lp2723
I5
aa(lp2724
I5
aa(lp2725
I5
aa(lp2726
I5
aa(lp2727
I5
aa(lp2728
I5
aa(lp2729
I5
aa(lp2730
I5
aa(lp2731
I5
aa(lp2732
I5
aa(lp2733
I5
aa(lp2734
I5
aa(lp2735
I5
aa(lp2736
I5
aa(lp2737
I5
aa(lp2738
I5
aa(lp2739
I5
aa(lp2740
I5
aa(lp2741
I5
aa(lp2742
I5
aa(lp2743
I5
aa(lp2744
I5
aa(lp2745
I5
aa(lp2746
I5
aa(lp2747
I5
aa(lp2748
I5
aa(lp2749
I5
aa(lp2750
I5
aa(lp2751
I5
aa(lp2752
I5
aa(lp2753
I5
aa(lp2754
I5
aa(lp2755
I5
aa(lp2756
I5
aa(lp2757
I5
aa(lp2758
I5
aa(lp2759
I5
aa(lp2760
I5
aa(lp2761
I5
aa(lp2762
I5
aa(lp2763
I5
aa(lp2764
I5
aa(lp2765
I5
aa(lp2766
I5
aa(lp2767
I5
aa(lp2768
I5
aa(lp2769
I5
aa(lp2770
I5
aa(lp2771
I5
aa(lp2772
I5
aa(lp2773
I5
aa(lp2774
I5
aa(lp2775
I5
aa(lp2776
I5
aa(lp2777
I5
aa(lp2778
I5
aa(lp2779
I5
aa(lp2780
I5
aa(lp2781
I5
aa(lp2782
I5
aa(lp2783
I5
aaa(lp2784
(lp2785
I10
aa(lp2786
I10
aa(lp2787
I10
aa(lp2788
I10
aa(lp2789
I10
aa(lp2790
I10
aa(lp2791
I10
aa(lp2792
I10
aa(lp2793
I10
aa(lp2794
I10
aa(lp2795
I10
aa(lp2796
I10
aa(lp2797
I10
aa(lp2798
I10
aa(lp2799
I10
aa(lp2800
I10
aa(lp2801
I10
aa(lp2802
I10
aa(lp2803
I10
aa(lp2804
I10
aa(lp2805
I10
aa(lp2806
I10
aa(lp2807
I10
aa(lp2808
I10
aa(lp2809
I10
aa(lp2810
I10
aa(lp2811
I10
aa(lp2812
I10
aa(lp2813
I10
aa(lp2814
I10
aa(lp2815
I10
aa(lp2816
I10
aa(lp2817
I10
aa(lp2818
I10
aa(lp2819
I10
aa(lp2820
I10
aa(lp2821
I10
aa(lp2822
I10
aa(lp2823
I10
aa(lp2824
I10
aa(lp2825
I10
aa(lp2826
I10
aa(lp2827
I10
aa(lp2828
I10
aa(lp2829
I10
aa(lp2830
I10
aa(lp2831
I10
aa(lp2832
I10
aa(lp2833
I10
aa(lp2834
I10
aa(lp2835
I10
aa(lp2836
I10
aa(lp2837
I10
aa(lp2838
I10
aa(lp2839
I10
aa(lp2840
I10
aa(lp2841
I10
aa(lp2842
I10
aa(lp2843
I10
aa(lp2844
I10
aa(lp2845
I10
aa(lp2846
I10
aa(lp2847
I10
aa(lp2848
I10
aa(lp2849
I10
aa(lp2850
I10
aa(lp2851
I10
aa(lp2852
I10
aa(lp2853
I10
aa(lp2854
I10
aa(lp2855
I10
aa(lp2856
I10
aa(lp2857
I10
aa(lp2858
I10
aa(lp2859
I10
aa(lp2860
I10
aa(lp2861
I10
aaa(lp2862
(lp2863
I11
aa(lp2864
I11
aa(lp2865
I11
aa(lp2866
I11
aa(lp2867
I11
aa(lp2868
I11
aa(lp2869
I11
aa(lp2870
I11
aa(lp2871
I11
aa(lp2872
I11
aaa(lp2873
(lp2874
I12
aa(lp2875
I12
aa(lp2876
I12
aa(lp2877
I12
aa(lp2878
I12
aa(lp2879
I12
aa(lp2880
I12
aa(lp2881
I12
aa(lp2882
I12
aa(lp2883
I12
aaa(lp2884
(lp2885
I13
aa(lp2886
I13
aa(lp2887
I13
aa(lp2888
I13
aa(lp2889
I13
aa(lp2890
I13
aa(lp2891
I13
aa(lp2892
I13
aa(lp2893
I13
aa(lp2894
I13
aa(lp2895
I13
aa(lp2896
I13
aa(lp2897
I13
aa(lp2898
I13
aa(lp2899
I13
aa(lp2900
I13
aa(lp2901
I13
aa(lp2902
I13
aa(lp2903
I13
aa(lp2904
I13
aa(lp2905
I13
aa(lp2906
I13
aa(lp2907
I13
aa(lp2908
I13
aa(lp2909
I13
aa(lp2910
I13
aa(lp2911
I13
aa(lp2912
I13
aa(lp2913
I13
aa(lp2914
I13
aa(lp2915
I13
aa(lp2916
I13
aa(lp2917
I13
aa(lp2918
I13
aaa(lp2919
(lp2920
I14
aa(lp2921
I14
aa(lp2922
I14
aa(lp2923
I14
aa(lp2924
I14
aa(lp2925
I14
aa(lp2926
I14
aa(lp2927
I14
aa(lp2928
I14
aa(lp2929
I14
aa(lp2930
I14
aa(lp2931
I14
aa(lp2932
I14
aa(lp2933
I14
aa(lp2934
I14
aa(lp2935
I14
aa(lp2936
I14
aa(lp2937
I14
aa(lp2938
I14
aa(lp2939
I14
aa(lp2940
I14
aa(lp2941
I14
aa(lp2942
I14
aa(lp2943
I14
aa(lp2944
I14
aa(lp2945
I14
aa(lp2946
I14
aa(lp2947
I14
aa(lp2948
I14
aa(lp2949
I14
aa(lp2950
I14
aa(lp2951
I14
aa(lp2952
I14
aa(lp2953
I14
aa(lp2954
I14
aa(lp2955
I14
aa(lp2956
I14
aa(lp2957
I14
aa(lp2958
I14
aa(lp2959
I14
aa(lp2960
I14
aa(lp2961
I14
aa(lp2962
I14
aa(lp2963
I14
aa(lp2964
I14
aa(lp2965
I14
aa(lp2966
I14
aa(lp2967
I14
aa(lp2968
I14
aa(lp2969
I14
aa(lp2970
I14
aa(lp2971
I14
aa(lp2972
I14
aaa(lp2973
(lp2974
I15
aa(lp2975
I15
aa(lp2976
I15
aa(lp2977
I15
aa(lp2978
I15
aa(lp2979
I15
aa(lp2980
I15
aa(lp2981
I15
aa(lp2982
I15
aa(lp2983
I15
aa(lp2984
I15
aa(lp2985
I15
aa(lp2986
I15
aa(lp2987
I15
aa(lp2988
I15
aa(lp2989
I15
aa(lp2990
I15
aa(lp2991
I15
aa(lp2992
I15
aa(lp2993
I15
aa(lp2994
I15
aa(lp2995
I15
aa(lp2996
I15
aa(lp2997
I15
aa(lp2998
I15
aa(lp2999
I15
aa(lp3000
I15
aa(lp3001
I15
aa(lp3002
I15
aa(lp3003
I15
aa(lp3004
I15
aa(lp3005
I15
aa(lp3006
I15
aa(lp3007
I15
aa(lp3008
I15
aa(lp3009
I15
aa(lp3010
I15
aa(lp3011
I15
aa(lp3012
I15
aa(lp3013
I15
aa(lp3014
I15
aa(lp3015
I15
aa(lp3016
I15
aa(lp3017
I15
aa(lp3018
I15
aa(lp3019
I15
aa(lp3020
I15
aa(lp3021
I15
aa(lp3022
I15
aa(lp3023
I15
aa(lp3024
I15
aa(lp3025
I15
aa(lp3026
I15
aa(lp3027
I15
aa(lp3028
I15
aa(lp3029
I15
aa(lp3030
I15
aa(lp3031
I15
aa(lp3032
I15
aa(lp3033
I15
aa(lp3034
I15
aa(lp3035
I15
aa(lp3036
I15
aa(lp3037
I15
aa(lp3038
I15
aa(lp3039
I15
aa(lp3040
I15
aa(lp3041
I15
aaa(lp3042
(lp3043
I20
aa(lp3044
I20
aa(lp3045
I20
aa(lp3046
I20
aa(lp3047
I20
aa(lp3048
I20
aa(lp3049
I20
aa(lp3050
I20
aa(lp3051
I20
aa(lp3052
I20
aa(lp3053
I20
aa(lp3054
I20
aaa(lp3055
(lp3056
I23
aa(lp3057
I23
aa(lp3058
I23
aa(lp3059
I23
aa(lp3060
I23
aa(lp3061
I23
aa(lp3062
I23
aa(lp3063
I23
aa(lp3064
I23
aa(lp3065
I23
aa(lp3066
I23
aa(lp3067
I23
aa(lp3068
I23
aa(lp3069
I23
aa(lp3070
I23
aa(lp3071
I23
aa(lp3072
I23
aa(lp3073
I23
aa(lp3074
I23
aa(lp3075
I23
aa(lp3076
I23
aa(lp3077
I23
aa(lp3078
I23
aa(lp3079
I23
aa(lp3080
I23
aa(lp3081
I23
aa(lp3082
I23
aa(lp3083
I23
aa(lp3084
I23
aa(lp3085
I23
aa(lp3086
I23
aa(lp3087
I23
aa(lp3088
I23
aa(lp3089
I23
aa(lp3090
I23
aa(lp3091
I23
aa(lp3092
I23
aa(lp3093
I23
aa(lp3094
I23
aa(lp3095
I23
aa(lp3096
I23
aa(lp3097
I23
aa(lp3098
I23
aa(lp3099
I23
aa(lp3100
I23
aa(lp3101
I23
aa(lp3102
I23
aa(lp3103
I23
aa(lp3104
I23
aa(lp3105
I23
aa(lp3106
I23
aa(lp3107
I23
aa(lp3108
I23
aa(lp3109
I23
aaa(lp3110
(lp3111
I25
aa(lp3112
I25
aa(lp3113
I25
aa(lp3114
I25
aa(lp3115
I25
aa(lp3116
I25
aa(lp3117
I25
aa(lp3118
I25
aa(lp3119
I25
aa(lp3120
I25
aa(lp3121
I25
aa(lp3122
I25
aa(lp3123
I25
aa(lp3124
I25
aa(lp3125
I25
aa(lp3126
I25
aa(lp3127
I25
aa(lp3128
I25
aa(lp3129
I25
aa(lp3130
I25
aa(lp3131
I25
aa(lp3132
I25
aa(lp3133
I25
aa(lp3134
I25
aa(lp3135
I25
aa(lp3136
I25
aa(lp3137
I25
aa(lp3138
I25
aa(lp3139
I25
aa(lp3140
I25
aa(lp3141
I25
aa(lp3142
I25
aa(lp3143
I25
aa(lp3144
I25
aa(lp3145
I25
aa(lp3146
I25
aa(lp3147
I25
aa(lp3148
I25
aa(lp3149
I25
aa(lp3150
I25
aa(lp3151
I25
aa(lp3152
I25
aa(lp3153
I25
aa(lp3154
I25
aa(lp3155
I25
aa(lp3156
I25
aa(lp3157
I25
aa(lp3158
I25
aa(lp3159
I25
aa(lp3160
I25
aa(lp3161
I25
aa(lp3162
I25
aa(lp3163
I25
aa(lp3164
I25
aa(lp3165
I25
aa(lp3166
I25
aa(lp3167
I25
aa(lp3168
I25
aa(lp3169
I25
aa(lp3170
I25
aa(lp3171
I25
aa(lp3172
I25
aa(lp3173
I25
aa(lp3174
I25
aa(lp3175
I25
aa(lp3176
I25
aa(lp3177
I25
aa(lp3178
I25
aa(lp3179
I25
aa(lp3180
I25
aa(lp3181
I25
aa(lp3182
I25
aa(lp3183
I25
aa(lp3184
I25
aa(lp3185
I25
aa(lp3186
I25
aa(lp3187
I25
aa(lp3188
I25
aa(lp3189
I25
aa(lp3190
I25
aa(lp3191
I25
aa(lp3192
I25
aa(lp3193
I25
aa(lp3194
I25
aaa(lp3195
(lp3196
I26
aa(lp3197
I26
aa(lp3198
I26
aa(lp3199
I26
aa(lp3200
I26
aa(lp3201
I26
aa(lp3202
I26
aa(lp3203
I26
aa(lp3204
I26
aa(lp3205
I26
aa(lp3206
I26
aa(lp3207
I26
aa(lp3208
I26
aa(lp3209
I26
aa(lp3210
I26
aa(lp3211
I26
aa(lp3212
I26
aa(lp3213
I26
aa(lp3214
I26
aa(lp3215
I26
aa(lp3216
I26
aa(lp3217
I26
aa(lp3218
I26
aa(lp3219
I26
aa(lp3220
I26
aa(lp3221
I26
aa(lp3222
I26
aa(lp3223
I26
aa(lp3224
I26
aa(lp3225
I26
aa(lp3226
I26
aa(lp3227
I26
aa(lp3228
I26
aa(lp3229
I26
aa(lp3230
I26
aa(lp3231
I26
aa(lp3232
I26
aa(lp3233
I26
aa(lp3234
I26
aa(lp3235
I26
aa(lp3236
I26
aa(lp3237
I26
aa(lp3238
I26
aa(lp3239
I26
aa(lp3240
I26
aa(lp3241
I26
aa(lp3242
I26
aa(lp3243
I26
aa(lp3244
I26
aa(lp3245
I26
aa(lp3246
I26
aa(lp3247
I26
aa(lp3248
I26
aa(lp3249
I26
aa(lp3250
I26
aa(lp3251
I26
aa(lp3252
I26
aa(lp3253
I26
aa(lp3254
I26
aa(lp3255
I26
aa(lp3256
I26
aa(lp3257
I26
aa(lp3258
I26
aa(lp3259
I26
aa(lp3260
I26
aa(lp3261
I26
aa(lp3262
I26
aa(lp3263
I26
aa(lp3264
I26
aa(lp3265
I26
aa(lp3266
I26
aa(lp3267
I26
aa(lp3268
I26
aa(lp3269
I26
aa(lp3270
I26
aa(lp3271
I26
aa(lp3272
I26
aa(lp3273
I26
aa(lp3274
I26
aa(lp3275
I26
aa(lp3276
I26
aa(lp3277
I26
aa(lp3278
I26
aa(lp3279
I26
aa(lp3280
I26
aa(lp3281
I26
aaa(lp3282
(lp3283
I28
aa(lp3284
I28
aa(lp3285
I28
aa(lp3286
I28
aa(lp3287
I28
aa(lp3288
I28
aa(lp3289
I28
aa(lp3290
I28
aa(lp3291
I28
aa(lp3292
I28
aa(lp3293
I28
aa(lp3294
I28
aa(lp3295
I28
aa(lp3296
I28
aa(lp3297
I28
aa(lp3298
I28
aa(lp3299
I28
aa(lp3300
I28
aa(lp3301
I28
aa(lp3302
I28
aa(lp3303
I28
aa(lp3304
I28
aa(lp3305
I28
aa(lp3306
I28
aa(lp3307
I28
aa(lp3308
I28
aa(lp3309
I28
aa(lp3310
I28
aa(lp3311
I28
aa(lp3312
I28
aa(lp3313
I28
aa(lp3314
I28
aa(lp3315
I28
aa(lp3316
I28
aa(lp3317
I28
aa(lp3318
I28
aa(lp3319
I28
aa(lp3320
I28
aa(lp3321
I28
aa(lp3322
I28
aa(lp3323
I28
aa(lp3324
I28
aa(lp3325
I28
aa(lp3326
I28
aa(lp3327
I28
aa(lp3328
I28
aa(lp3329
I28
aa(lp3330
I28
aa(lp3331
I28
aa(lp3332
I28
aa(lp3333
I28
aa(lp3334
I28
aa(lp3335
I28
aa(lp3336
I28
aa(lp3337
I28
aa(lp3338
I28
aa(lp3339
I28
aa(lp3340
I28
aa(lp3341
I28
aaa(lp3342
(lp3343
I31
aa(lp3344
I31
aa(lp3345
I31
aa(lp3346
I31
aa(lp3347
I31
aa(lp3348
I31
aa(lp3349
I31
aa(lp3350
I31
aa(lp3351
I31
aa(lp3352
I31
aa(lp3353
I31
aa(lp3354
I31
aa(lp3355
I31
aa(lp3356
I31
aa(lp3357
I31
aa(lp3358
I31
aaa(lp3359
(lp3360
I32
aa(lp3361
I32
aa(lp3362
I32
aa(lp3363
I32
aa(lp3364
I32
aa(lp3365
I32
aa(lp3366
I32
aa(lp3367
I32
aa(lp3368
I32
aa(lp3369
I32
aa(lp3370
I32
aa(lp3371
I32
aa(lp3372
I32
aa(lp3373
I32
aa(lp3374
I32
aa(lp3375
I32
aa(lp3376
I32
aa(lp3377
I32
aa(lp3378
I32
aa(lp3379
I32
aa(lp3380
I32
aa(lp3381
I32
aa(lp3382
I32
aa(lp3383
I32
aa(lp3384
I32
aa(lp3385
I32
aa(lp3386
I32
aa(lp3387
I32
aa(lp3388
I32
aa(lp3389
I32
aa(lp3390
I32
aa(lp3391
I32
aa(lp3392
I32
aa(lp3393
I32
aa(lp3394
I32
aa(lp3395
I32
aa(lp3396
I32
aa(lp3397
I32
aa(lp3398
I32
aa(lp3399
I32
aa(lp3400
I32
aa(lp3401
I32
aa(lp3402
I32
aa(lp3403
I32
aa(lp3404
I32
aa(lp3405
I32
aa(lp3406
I32
aa(lp3407
I32
aa(lp3408
I32
aa(lp3409
I32
aa(lp3410
I32
aa(lp3411
I32
aa(lp3412
I32
aa(lp3413
I32
aa(lp3414
I32
aa(lp3415
I32
aa(lp3416
I32
aa(lp3417
I32
aa(lp3418
I32
aa(lp3419
I32
aa(lp3420
I32
aa(lp3421
I32
aa(lp3422
I32
aa(lp3423
I32
aa(lp3424
I32
aa(lp3425
I32
aa(lp3426
I32
aa(lp3427
I32
aa(lp3428
I32
aa(lp3429
I32
aa(lp3430
I32
aa(lp3431
I32
aa(lp3432
I32
aa(lp3433
I32
aa(lp3434
I32
aa(lp3435
I32
aa(lp3436
I32
aa(lp3437
I32
aa(lp3438
I32
aa(lp3439
I32
aa(lp3440
I32
aa(lp3441
I32
aa(lp3442
I32
aa(lp3443
I32
aa(lp3444
I32
aa(lp3445
I32
aa(lp3446
I32
aa(lp3447
I32
aa(lp3448
I32
aa(lp3449
I32
aa(lp3450
I32
aa(lp3451
I32
aa(lp3452
I32
aa(lp3453
I32
aaa(lp3454
(lp3455
I34
aa(lp3456
I34
aa(lp3457
I34
aa(lp3458
I34
aa(lp3459
I34
aa(lp3460
I34
aa(lp3461
I34
aa(lp3462
I34
aa(lp3463
I34
aa(lp3464
I34
aa(lp3465
I34
aa(lp3466
I34
aa(lp3467
I34
aa(lp3468
I34
aa(lp3469
I34
aa(lp3470
I34
aa(lp3471
I34
aa(lp3472
I34
aa(lp3473
I34
aa(lp3474
I34
aa(lp3475
I34
aa(lp3476
I34
aa(lp3477
I34
aa(lp3478
I34
aa(lp3479
I34
aa(lp3480
I34
aa(lp3481
I34
aa(lp3482
I34
aa(lp3483
I34
aa(lp3484
I34
aa(lp3485
I34
aa(lp3486
I34
aa(lp3487
I34
aa(lp3488
I34
aa(lp3489
I34
aa(lp3490
I34
aa(lp3491
I34
aa(lp3492
I34
aa(lp3493
I34
aa(lp3494
I34
aa(lp3495
I34
aa(lp3496
I34
aa(lp3497
I34
aa(lp3498
I34
aa(lp3499
I34
aa(lp3500
I34
aa(lp3501
I34
aaa(lp3502
(lp3503
I35
aa(lp3504
I35
aa(lp3505
I35
aa(lp3506
I35
aa(lp3507
I35
aa(lp3508
I35
aa(lp3509
I35
aa(lp3510
I35
aa(lp3511
I35
aa(lp3512
I35
aa(lp3513
I35
aa(lp3514
I35
aa(lp3515
I35
aa(lp3516
I35
aa(lp3517
I35
aa(lp3518
I35
aa(lp3519
I35
aa(lp3520
I35
aa(lp3521
I35
aa(lp3522
I35
aa(lp3523
I35
aa(lp3524
I35
aa(lp3525
I35
aa(lp3526
I35
aa(lp3527
I35
aa(lp3528
I35
aa(lp3529
I35
aa(lp3530
I35
aa(lp3531
I35
aa(lp3532
I35
aa(lp3533
I35
aa(lp3534
I35
aa(lp3535
I35
aa(lp3536
I35
aa(lp3537
I35
aa(lp3538
I35
aaa(lp3539
(lp3540
I36
aa(lp3541
I36
aa(lp3542
I36
aa(lp3543
I36
aa(lp3544
I36
aa(lp3545
I36
aa(lp3546
I36
aa(lp3547
I36
aa(lp3548
I36
aa(lp3549
I36
aa(lp3550
I36
aa(lp3551
I36
aa(lp3552
I36
aa(lp3553
I36
aa(lp3554
I36
aa(lp3555
I36
aa(lp3556
I36
aa(lp3557
I36
aa(lp3558
I36
aa(lp3559
I36
aa(lp3560
I36
aa(lp3561
I36
aa(lp3562
I36
aa(lp3563
I36
aa(lp3564
I36
aa(lp3565
I36
aa(lp3566
I36
aaa(lp3567
(lp3568
I37
aa(lp3569
I37
aa(lp3570
I37
aa(lp3571
I37
aa(lp3572
I37
aa(lp3573
I37
aa(lp3574
I37
aa(lp3575
I37
aa(lp3576
I37
aa(lp3577
I37
aa(lp3578
I37
aa(lp3579
I37
aa(lp3580
I37
aa(lp3581
I37
aa(lp3582
I37
aa(lp3583
I37
aa(lp3584
I37
aa(lp3585
I37
aa(lp3586
I37
aa(lp3587
I37
aa(lp3588
I37
aa(lp3589
I37
aa(lp3590
I37
aa(lp3591
I37
aa(lp3592
I37
aa(lp3593
I37
aa(lp3594
I37
aa(lp3595
I37
aa(lp3596
I37
aa(lp3597
I37
aa(lp3598
I37
aa(lp3599
I37
aa(lp3600
I37
aa(lp3601
I37
aa(lp3602
I37
aa(lp3603
I37
aa(lp3604
I37
aa(lp3605
I37
aa(lp3606
I37
aa(lp3607
I37
aa(lp3608
I37
aa(lp3609
I37
aa(lp3610
I37
aa(lp3611
I37
aa(lp3612
I37
aa(lp3613
I37
aa(lp3614
I37
aa(lp3615
I37
aa(lp3616
I37
aaa(lp3617
(lp3618
I38
aa(lp3619
I38
aa(lp3620
I38
aa(lp3621
I38
aa(lp3622
I38
aa(lp3623
I38
aa(lp3624
I38
aa(lp3625
I38
aa(lp3626
I38
aa(lp3627
I38
aa(lp3628
I38
aa(lp3629
I38
aa(lp3630
I38
aa(lp3631
I38
aa(lp3632
I38
aa(lp3633
I38
aa(lp3634
I38
aa(lp3635
I38
aa(lp3636
I38
aa(lp3637
I38
aa(lp3638
I38
aa(lp3639
I38
aa(lp3640
I38
aa(lp3641
I38
aa(lp3642
I38
aa(lp3643
I38
aa(lp3644
I38
aa(lp3645
I38
aaa(lp3646
(lp3647
I40
aa(lp3648
I40
aa(lp3649
I40
aa(lp3650
I40
aa(lp3651
I40
aa(lp3652
I40
aa(lp3653
I40
aa(lp3654
I40
aa(lp3655
I40
aa(lp3656
I40
aa(lp3657
I40
aa(lp3658
I40
aaa(lp3659
(lp3660
I41
aa(lp3661
I41
aa(lp3662
I41
aa(lp3663
I41
aa(lp3664
I41
aa(lp3665
I41
aa(lp3666
I41
aa(lp3667
I41
aa(lp3668
I41
aa(lp3669
I41
aa(lp3670
I41
aa(lp3671
I41
aa(lp3672
I41
aa(lp3673
I41
aa(lp3674
I41
aa(lp3675
I41
aa(lp3676
I41
aa(lp3677
I41
aa(lp3678
I41
aa(lp3679
I41
aa(lp3680
I41
aa(lp3681
I41
aa(lp3682
I41
aa(lp3683
I41
aa(lp3684
I41
aa(lp3685
I41
aa(lp3686
I41
aa(lp3687
I41
aa(lp3688
I41
aa(lp3689
I41
aa(lp3690
I41
aa(lp3691
I41
aa(lp3692
I41
aa(lp3693
I41
aaa(lp3694
(lp3695
I44
aa(lp3696
I44
aa(lp3697
I44
aa(lp3698
I44
aa(lp3699
I44
aa(lp3700
I44
aa(lp3701
I44
aa(lp3702
I44
aa(lp3703
I44
aa(lp3704
I44
aa(lp3705
I44
aa(lp3706
I44
aa(lp3707
I44
aa(lp3708
I44
aa(lp3709
I44
aa(lp3710
I44
aa(lp3711
I44
aaa(lp3712
(lp3713
I45
aa(lp3714
I45
aa(lp3715
I45
aa(lp3716
I45
aa(lp3717
I45
aa(lp3718
I45
aa(lp3719
I45
aa(lp3720
I45
aa(lp3721
I45
aa(lp3722
I45
aa(lp3723
I45
aa(lp3724
I45
aa(lp3725
I45
aa(lp3726
I45
aa(lp3727
I45
aaa(lp3728
(lp3729
I49
aa(lp3730
I49
aa(lp3731
I49
aa(lp3732
I49
aa(lp3733
I49
aa(lp3734
I49
aa(lp3735
I49
aa(lp3736
I49
aa(lp3737
I49
aa(lp3738
I49
aa(lp3739
I49
aa(lp3740
I49
aaa(lp3741
(lp3742
I50
aa(lp3743
I50
aa(lp3744
I50
aa(lp3745
I50
aa(lp3746
I50
aa(lp3747
I50
aa(lp3748
I50
aa(lp3749
I50
aa(lp3750
I50
aa(lp3751
I50
aa(lp3752
I50
aa(lp3753
I50
aa(lp3754
I50
aa(lp3755
I50
aa(lp3756
I50
aa(lp3757
I50
aa(lp3758
I50
aa(lp3759
I50
aa(lp3760
I50
aa(lp3761
I50
aa(lp3762
I50
aa(lp3763
I50
aa(lp3764
I50
aa(lp3765
I50
aa(lp3766
I50
aa(lp3767
I50
aa(lp3768
I50
aa(lp3769
I50
aa(lp3770
I50
aa(lp3771
I50
aa(lp3772
I50
aa(lp3773
I50
aa(lp3774
I50
aa(lp3775
I50
aa(lp3776
I50
aa(lp3777
I50
aa(lp3778
I50
aa(lp3779
I50
aa(lp3780
I50
aa(lp3781
I50
aaa(lp3782
(lp3783
I51
aa(lp3784
I51
aa(lp3785
I51
aa(lp3786
I51
aa(lp3787
I51
aa(lp3788
I51
aa(lp3789
I51
aa(lp3790
I51
aa(lp3791
I51
aa(lp3792
I51
aa(lp3793
I51
aa(lp3794
I51
aa(lp3795
I51
aa(lp3796
I51
aa(lp3797
I51
aa(lp3798
I51
aa(lp3799
I51
aa(lp3800
I51
aa(lp3801
I51
aa(lp3802
I51
aa(lp3803
I51
aaa(lp3804
(lp3805
I53
aa(lp3806
I53
aa(lp3807
I53
aa(lp3808
I53
aa(lp3809
I53
aa(lp3810
I53
aa(lp3811
I53
aa(lp3812
I53
aa(lp3813
I53
aa(lp3814
I53
aa(lp3815
I53
aa(lp3816
I53
aa(lp3817
I53
aa(lp3818
I53
aa(lp3819
I53
aa(lp3820
I53
aa(lp3821
I53
aa(lp3822
I53
aa(lp3823
I53
aa(lp3824
I53
aa(lp3825
I53
aa(lp3826
I53
aa(lp3827
I53
aa(lp3828
I53
aa(lp3829
I53
aa(lp3830
I53
aa(lp3831
I53
aa(lp3832
I53
aa(lp3833
I53
aa(lp3834
I53
aa(lp3835
I53
aa(lp3836
I53
aa(lp3837
I53
aa(lp3838
I53
aa(lp3839
I53
aa(lp3840
I53
aa(lp3841
I53
aa(lp3842
I53
aa(lp3843
I53
aa(lp3844
I53
aa(lp3845
I53
aa(lp3846
I53
aa(lp3847
I53
aa(lp3848
I53
aa(lp3849
I53
aa(lp3850
I53
aa(lp3851
I53
aa(lp3852
I53
aa(lp3853
I53
aa(lp3854
I53
aa(lp3855
I53
aa(lp3856
I53
aa(lp3857
I53
aa(lp3858
I53
aa(lp3859
I53
aa(lp3860
I53
aa(lp3861
I53
aa(lp3862
I53
aa(lp3863
I53
aa(lp3864
I53
aa(lp3865
I53
aa(lp3866
I53
aa(lp3867
I53
aa(lp3868
I53
aa(lp3869
I53
aaa(lp3870
(lp3871
I54
aa(lp3872
I54
aa(lp3873
I54
aa(lp3874
I54
aa(lp3875
I54
aa(lp3876
I54
aa(lp3877
I54
aa(lp3878
I54
aa(lp3879
I54
aa(lp3880
I54
aa(lp3881
I54
aa(lp3882
I54
aa(lp3883
I54
aa(lp3884
I54
aa(lp3885
I54
aa(lp3886
I54
aa(lp3887
I54
aa(lp3888
I54
aa(lp3889
I54
aa(lp3890
I54
aa(lp3891
I54
aa(lp3892
I54
aa(lp3893
I54
aa(lp3894
I54
aa(lp3895
I54
aa(lp3896
I54
aa(lp3897
I54
aa(lp3898
I54
aa(lp3899
I54
aa(lp3900
I54
aa(lp3901
I54
aaaa.