(lp1
(lp2
(lp3
I1
aa(lp4
I1
aa(lp5
I1
aa(lp6
I1
aa(lp7
I1
aa(lp8
I1
aa(lp9
I1
aa(lp10
I1
aa(lp11
I1
aa(lp12
I1
aa(lp13
I1
aa(lp14
I1
aa(lp15
I1
aa(lp16
I1
aa(lp17
I1
aa(lp18
I1
aa(lp19
I1
aa(lp20
I1
aa(lp21
I1
aa(lp22
I1
aa(lp23
I1
aa(lp24
I1
aa(lp25
I1
aa(lp26
I1
aa(lp27
I1
aa(lp28
I1
aa(lp29
I1
aa(lp30
I1
aa(lp31
I1
aa(lp32
I1
aa(lp33
I1
aa(lp34
I1
aa(lp35
I1
aa(lp36
I1
aa(lp37
I1
aa(lp38
I1
aa(lp39
I1
aa(lp40
I1
aa(lp41
I1
aa(lp42
I1
aa(lp43
I1
aa(lp44
I1
aa(lp45
I1
aa(lp46
I1
aa(lp47
I1
aa(lp48
I1
aa(lp49
I1
aa(lp50
I1
aa(lp51
I1
aa(lp52
I1
aa(lp53
I1
aa(lp54
I1
aa(lp55
I1
aa(lp56
I1
aa(lp57
I1
aa(lp58
I1
aa(lp59
I1
aa(lp60
I1
aa(lp61
I1
aa(lp62
I1
aa(lp63
I1
aa(lp64
I1
aa(lp65
I1
aa(lp66
I1
aa(lp67
I1
aa(lp68
I1
aa(lp69
I1
aa(lp70
I1
aa(lp71
I1
aaa(lp72
(lp73
I4
aa(lp74
I4
aa(lp75
I4
aa(lp76
I4
aa(lp77
I4
aa(lp78
I4
aa(lp79
I4
aa(lp80
I4
aa(lp81
I4
aa(lp82
I4
aa(lp83
I4
aa(lp84
I4
aa(lp85
I4
aa(lp86
I4
aa(lp87
I4
aa(lp88
I4
aa(lp89
I4
aa(lp90
I4
aaa(lp91
(lp92
I5
aa(lp93
I5
aa(lp94
I5
aa(lp95
I5
aa(lp96
I5
aa(lp97
I5
aa(lp98
I5
aa(lp99
I5
aa(lp100
I5
aa(lp101
I5
aa(lp102
I5
aa(lp103
I5
aa(lp104
I5
aa(lp105
I5
aa(lp106
I5
aa(lp107
I5
aa(lp108
I5
aa(lp109
I5
aa(lp110
I5
aa(lp111
I5
aa(lp112
I5
aa(lp113
I5
aa(lp114
I5
aa(lp115
I5
aa(lp116
I5
aa(lp117
I5
aa(lp118
I5
aa(lp119
I5
aa(lp120
I5
aa(lp121
I5
aa(lp122
I5
aa(lp123
I5
aa(lp124
I5
aa(lp125
I5
aa(lp126
I5
aa(lp127
I5
aa(lp128
I5
aa(lp129
I5
aa(lp130
I5
aa(lp131
I5
aa(lp132
I5
aa(lp133
I5
aa(lp134
I5
aa(lp135
I5
aa(lp136
I5
aa(lp137
I5
aa(lp138
I5
aa(lp139
I5
aa(lp140
I5
aa(lp141
I5
aa(lp142
I5
aa(lp143
I5
aa(lp144
I5
aa(lp145
I5
aa(lp146
I5
aa(lp147
I5
aa(lp148
I5
aa(lp149
I5
aa(lp150
I5
aa(lp151
I5
aa(lp152
I5
aa(lp153
I5
aa(lp154
I5
aa(lp155
I5
aa(lp156
I5
aa(lp157
I5
aa(lp158
I5
aa(lp159
I5
aa(lp160
I5
aa(lp161
I5
aa(lp162
I5
aa(lp163
I5
aa(lp164
I5
aa(lp165
I5
aa(lp166
I5
aa(lp167
I5
aa(lp168
I5
aa(lp169
I5
aa(lp170
I5
aaa(lp171
(lp172
I10
aa(lp173
I10
aa(lp174
I10
aa(lp175
I10
aa(lp176
I10
aa(lp177
I10
aa(lp178
I10
aa(lp179
I10
aa(lp180
I10
aa(lp181
I10
aa(lp182
I10
aa(lp183
I10
aa(lp184
I10
aa(lp185
I10
aa(lp186
I10
aa(lp187
I10
aa(lp188
I10
aa(lp189
I10
aa(lp190
I10
aa(lp191
I10
aa(lp192
I10
aa(lp193
I10
aa(lp194
I10
aa(lp195
I10
aa(lp196
I10
aa(lp197
I10
aa(lp198
I10
aa(lp199
I10
aa(lp200
I10
aa(lp201
I10
aa(lp202
I10
aa(lp203
I10
aa(lp204
I10
aa(lp205
I10
aa(lp206
I10
aa(lp207
I10
aa(lp208
I10
aa(lp209
I10
aa(lp210
I10
aa(lp211
I10
aa(lp212
I10
aa(lp213
I10
aa(lp214
I10
aa(lp215
I10
aa(lp216
I10
aa(lp217
I10
aa(lp218
I10
aa(lp219
I10
aa(lp220
I10
aa(lp221
I10
aa(lp222
I10
aa(lp223
I10
aa(lp224
I10
aa(lp225
I10
aa(lp226
I10
aa(lp227
I10
aa(lp228
I10
aa(lp229
I10
aa(lp230
I10
aa(lp231
I10
aa(lp232
I10
aa(lp233
I10
aa(lp234
I10
aa(lp235
I10
aa(lp236
I10
aa(lp237
I10
aa(lp238
I10
aa(lp239
I10
aa(lp240
I10
aa(lp241
I10
aa(lp242
I10
aa(lp243
I10
aa(lp244
I10
aa(lp245
I10
aa(lp246
I10
aa(lp247
I10
aa(lp248
I10
aaa(lp249
(lp250
I11
aa(lp251
I11
aa(lp252
I11
aa(lp253
I11
aa(lp254
I11
aa(lp255
I11
aa(lp256
I11
aa(lp257
I11
aa(lp258
I11
aa(lp259
I11
aaa.