(lp1
(lp2
(lp3
I7
aa(lp4
I7
aa(lp5
I7
aa(lp6
I7
aa(lp7
I7
aa(lp8
I7
aa(lp9
I7
aa(lp10
I7
aa(lp11
I7
aa(lp12
I7
aa(lp13
I7
aa(lp14
I7
aa(lp15
I7
aa(lp16
I7
aa(lp17
I7
aa(lp18
I7
aa(lp19
I7
aaa(lp20
(lp21
I9
aa(lp22
I9
aa(lp23
I9
aa(lp24
I9
aa(lp25
I9
aa(lp26
I9
aa(lp27
I9
aa(lp28
I9
aa(lp29
I9
aa(lp30
I9
aa(lp31
I9
aa(lp32
I9
aaa(lp33
(lp34
I10
aa(lp35
I10
aa(lp36
I10
aa(lp37
I10
aa(lp38
I10
aa(lp39
I10
aa(lp40
I10
aa(lp41
I10
aa(lp42
I10
aa(lp43
I10
aa(lp44
I10
aa(lp45
I10
aa(lp46
I10
aa(lp47
I10
aa(lp48
I10
aa(lp49
I10
aa(lp50
I10
aa(lp51
I10
aa(lp52
I10
aa(lp53
I10
aa(lp54
I10
aa(lp55
I10
aa(lp56
I10
aa(lp57
I10
aa(lp58
I10
aa(lp59
I10
aa(lp60
I10
aa(lp61
I10
aa(lp62
I10
aa(lp63
I10
aa(lp64
I10
aa(lp65
I10
aa(lp66
I10
aa(lp67
I10
aa(lp68
I10
aa(lp69
I10
aa(lp70
I10
aa(lp71
I10
aa(lp72
I10
aa(lp73
I10
aa(lp74
I10
aa(lp75
I10
aaa(lp76
(lp77
I11
aa(lp78
I11
aa(lp79
I11
aa(lp80
I11
aa(lp81
I11
aa(lp82
I11
aa(lp83
I11
aa(lp84
I11
aa(lp85
I11
aa(lp86
I11
aa(lp87
I11
aaa(lp88
(lp89
I12
aa(lp90
I12
aa(lp91
I12
aa(lp92
I12
aa(lp93
I12
aa(lp94
I12
aa(lp95
I12
aa(lp96
I12
aa(lp97
I12
aa(lp98
I12
aa(lp99
I12
aa(lp100
I12
aa(lp101
I12
aa(lp102
I12
aa(lp103
I12
aa(lp104
I12
aa(lp105
I12
aa(lp106
I12
aa(lp107
I12
aa(lp108
I12
aa(lp109
I12
aa(lp110
I12
aa(lp111
I12
aa(lp112
I12
aa(lp113
I12
aa(lp114
I12
aa(lp115
I12
aa(lp116
I12
aa(lp117
I12
aa(lp118
I12
aa(lp119
I12
aa(lp120
I12
aa(lp121
I12
aa(lp122
I12
aa(lp123
I12
aa(lp124
I12
aa(lp125
I12
aa(lp126
I12
aa(lp127
I12
aa(lp128
I12
aa(lp129
I12
aa(lp130
I12
aa(lp131
I12
aa(lp132
I12
aa(lp133
I12
aa(lp134
I12
aa(lp135
I12
aa(lp136
I12
aa(lp137
I12
aa(lp138
I12
aa(lp139
I12
aa(lp140
I12
aa(lp141
I12
aa(lp142
I12
aa(lp143
I12
aa(lp144
I12
aa(lp145
I12
aa(lp146
I12
aa(lp147
I12
aa(lp148
I12
aa(lp149
I12
aa(lp150
I12
aa(lp151
I12
aa(lp152
I12
aa(lp153
I12
aa(lp154
I12
aa(lp155
I12
aa(lp156
I12
aa(lp157
I12
aa(lp158
I12
aa(lp159
I12
aa(lp160
I12
aa(lp161
I12
aa(lp162
I12
aa(lp163
I12
aa(lp164
I12
aa(lp165
I12
aa(lp166
I12
aa(lp167
I12
aa(lp168
I12
aa(lp169
I12
aa(lp170
I12
aa(lp171
I12
aaa(lp172
(lp173
I15
aa(lp174
I15
aa(lp175
I15
aa(lp176
I15
aa(lp177
I15
aa(lp178
I15
aa(lp179
I15
aa(lp180
I15
aa(lp181
I15
aa(lp182
I15
aa(lp183
I15
aa(lp184
I15
aa(lp185
I15
aa(lp186
I15
aa(lp187
I15
aa(lp188
I15
aa(lp189
I15
aa(lp190
I15
aaa(lp191
(lp192
I16
aa(lp193
I16
aa(lp194
I16
aa(lp195
I16
aa(lp196
I16
aa(lp197
I16
aa(lp198
I16
aa(lp199
I16
aa(lp200
I16
aa(lp201
I16
aa(lp202
I16
aa(lp203
I16
aa(lp204
I16
aa(lp205
I16
aa(lp206
I16
aa(lp207
I16
aa(lp208
I16
aa(lp209
I16
aa(lp210
I16
aa(lp211
I16
aa(lp212
I16
aa(lp213
I16
aa(lp214
I16
aa(lp215
I16
aa(lp216
I16
aa(lp217
I16
aa(lp218
I16
aa(lp219
I16
aa(lp220
I16
aa(lp221
I16
aa(lp222
I16
aa(lp223
I16
aa(lp224
I16
aa(lp225
I16
aa(lp226
I16
aa(lp227
I16
aa(lp228
I16
aa(lp229
I16
aa(lp230
I16
aa(lp231
I16
aa(lp232
I16
aa(lp233
I16
aa(lp234
I16
aa(lp235
I16
aa(lp236
I16
aa(lp237
I16
aa(lp238
I16
aa(lp239
I16
aa(lp240
I16
aa(lp241
I16
aa(lp242
I16
aa(lp243
I16
aa(lp244
I16
aa(lp245
I16
aa(lp246
I16
aa(lp247
I16
aa(lp248
I16
aa(lp249
I16
aa(lp250
I16
aa(lp251
I16
aa(lp252
I16
aa(lp253
I16
aa(lp254
I16
aa(lp255
I16
aa(lp256
I16
aa(lp257
I16
aa(lp258
I16
aa(lp259
I16
aa(lp260
I16
aa(lp261
I16
aa(lp262
I16
aaa(lp263
(lp264
I17
aa(lp265
I17
aa(lp266
I17
aa(lp267
I17
aa(lp268
I17
aa(lp269
I17
aa(lp270
I17
aa(lp271
I17
aa(lp272
I17
aa(lp273
I17
aa(lp274
I17
aa(lp275
I17
aa(lp276
I17
aa(lp277
I17
aa(lp278
I17
aaa(lp279
(lp280
I18
aa(lp281
I18
aa(lp282
I18
aa(lp283
I18
aa(lp284
I18
aa(lp285
I18
aa(lp286
I18
aa(lp287
I18
aa(lp288
I18
aa(lp289
I18
aaa.