(lp1
(lp2
(lp3
I3
aa(lp4
I3
aa(lp5
I3
aa(lp6
I3
aa(lp7
I3
aa(lp8
I3
aa(lp9
I3
aa(lp10
I3
aa(lp11
I3
aa(lp12
I3
aa(lp13
I3
aa(lp14
I3
aa(lp15
I3
aa(lp16
I3
aa(lp17
I3
aa(lp18
I3
aa(lp19
I3
aa(lp20
I3
aa(lp21
I3
aa(lp22
I3
aa(lp23
I3
aa(lp24
I3
aa(lp25
I3
aa(lp26
I3
aa(lp27
I3
aa(lp28
I3
aa(lp29
I3
aa(lp30
I3
aa(lp31
I3
aa(lp32
I3
aa(lp33
I3
aa(lp34
I3
aa(lp35
I3
aa(lp36
I3
aa(lp37
I3
aa(lp38
I3
aa(lp39
I3
aa(lp40
I3
aa(lp41
I3
aa(lp42
I3
aa(lp43
I3
aa(lp44
I3
aa(lp45
I3
aa(lp46
I3
aa(lp47
I3
aa(lp48
I3
aa(lp49
I3
aa(lp50
I3
aa(lp51
I3
aa(lp52
I3
aa(lp53
I3
aa(lp54
I3
aa(lp55
I3
aa(lp56
I3
aa(lp57
I3
aa(lp58
I3
aa(lp59
I3
aa(lp60
I3
aa(lp61
I3
aa(lp62
I3
aa(lp63
I3
aa(lp64
I3
aa(lp65
I3
aa(lp66
I3
aa(lp67
I3
aa(lp68
I3
aa(lp69
I3
aa(lp70
I3
aa(lp71
I3
aa(lp72
I3
aa(lp73
I3
aa(lp74
I3
aa(lp75
I3
aa(lp76
I3
aa(lp77
I3
aa(lp78
I3
aa(lp79
I3
aa(lp80
I3
aa(lp81
I3
aa(lp82
I3
aa(lp83
I3
aa(lp84
I3
aa(lp85
I3
aa(lp86
I3
aa(lp87
I3
aa(lp88
I3
aa(lp89
I3
aa(lp90
I3
aa(lp91
I3
aa(lp92
I3
aaa(lp93
(lp94
I5
aa(lp95
I5
aa(lp96
I5
aa(lp97
I5
aa(lp98
I5
aa(lp99
I5
aa(lp100
I5
aa(lp101
I5
aa(lp102
I5
aa(lp103
I5
aa(lp104
I5
aa(lp105
I5
aa(lp106
I5
aa(lp107
I5
aa(lp108
I5
aa(lp109
I5
aa(lp110
I5
aa(lp111
I5
aa(lp112
I5
aa(lp113
I5
aa(lp114
I5
aa(lp115
I5
aa(lp116
I5
aa(lp117
I5
aa(lp118
I5
aa(lp119
I5
aa(lp120
I5
aa(lp121
I5
aa(lp122
I5
aa(lp123
I5
aa(lp124
I5
aa(lp125
I5
aa(lp126
I5
aa(lp127
I5
aa(lp128
I5
aa(lp129
I5
aa(lp130
I5
aa(lp131
I5
aa(lp132
I5
aa(lp133
I5
aa(lp134
I5
aa(lp135
I5
aa(lp136
I5
aa(lp137
I5
aa(lp138
I5
aa(lp139
I5
aa(lp140
I5
aa(lp141
I5
aa(lp142
I5
aa(lp143
I5
aa(lp144
I5
aa(lp145
I5
aa(lp146
I5
aa(lp147
I5
aaa(lp148
(lp149
I7
aa(lp150
I7
aa(lp151
I7
aa(lp152
I7
aa(lp153
I7
aa(lp154
I7
aa(lp155
I7
aa(lp156
I7
aa(lp157
I7
aa(lp158
I7
aa(lp159
I7
aa(lp160
I7
aa(lp161
I7
aa(lp162
I7
aa(lp163
I7
aa(lp164
I7
aa(lp165
I7
aa(lp166
I7
aa(lp167
I7
aa(lp168
I7
aa(lp169
I7
aa(lp170
I7
aa(lp171
I7
aa(lp172
I7
aa(lp173
I7
aa(lp174
I7
aa(lp175
I7
aa(lp176
I7
aa(lp177
I7
aa(lp178
I7
aa(lp179
I7
aa(lp180
I7
aa(lp181
I7
aa(lp182
I7
aaa(lp183
(lp184
I8
aa(lp185
I8
aa(lp186
I8
aa(lp187
I8
aa(lp188
I8
aa(lp189
I8
aa(lp190
I8
aa(lp191
I8
aa(lp192
I8
aa(lp193
I8
aa(lp194
I8
aa(lp195
I8
aa(lp196
I8
aa(lp197
I8
aa(lp198
I8
aa(lp199
I8
aa(lp200
I8
aa(lp201
I8
aa(lp202
I8
aa(lp203
I8
aa(lp204
I8
aa(lp205
I8
aa(lp206
I8
aa(lp207
I8
aa(lp208
I8
aa(lp209
I8
aa(lp210
I8
aa(lp211
I8
aa(lp212
I8
aa(lp213
I8
aa(lp214
I8
aa(lp215
I8
aa(lp216
I8
aa(lp217
I8
aa(lp218
I8
aa(lp219
I8
aa(lp220
I8
aa(lp221
I8
aa(lp222
I8
aa(lp223
I8
aa(lp224
I8
aa(lp225
I8
aa(lp226
I8
aa(lp227
I8
aa(lp228
I8
aa(lp229
I8
aa(lp230
I8
aa(lp231
I8
aa(lp232
I8
aa(lp233
I8
aa(lp234
I8
aaa(lp235
(lp236
I10
aa(lp237
I10
aa(lp238
I10
aa(lp239
I10
aa(lp240
I10
aa(lp241
I10
aa(lp242
I10
aa(lp243
I10
aa(lp244
I10
aa(lp245
I10
aa(lp246
I10
aa(lp247
I10
aa(lp248
I10
aa(lp249
I10
aa(lp250
I10
aa(lp251
I10
aaa.