(lp1
(lp2
(lp3
I1
aa(lp4
I1
aa(lp5
I1
aa(lp6
I1
aa(lp7
I1
aa(lp8
I1
aa(lp9
I1
aa(lp10
I1
aa(lp11
I1
aa(lp12
I1
aa(lp13
I1
aa(lp14
I1
aa(lp15
I1
aa(lp16
I1
aa(lp17
I1
aa(lp18
I1
aaa(lp19
(lp20
I3
aa(lp21
I3
aa(lp22
I3
aa(lp23
I3
aa(lp24
I3
aa(lp25
I3
aa(lp26
I3
aa(lp27
I3
aa(lp28
I3
aa(lp29
I3
aa(lp30
I3
aa(lp31
I3
aa(lp32
I3
aa(lp33
I3
aa(lp34
I3
aa(lp35
I3
aa(lp36
I3
aa(lp37
I3
aa(lp38
I3
aa(lp39
I3
aa(lp40
I3
aa(lp41
I3
aa(lp42
I3
aa(lp43
I3
aa(lp44
I3
aa(lp45
I3
aa(lp46
I3
aa(lp47
I3
aa(lp48
I3
aa(lp49
I3
aa(lp50
I3
aa(lp51
I3
aa(lp52
I3
aa(lp53
I3
aa(lp54
I3
aa(lp55
I3
aa(lp56
I3
aa(lp57
I3
aa(lp58
I3
aa(lp59
I3
aa(lp60
I3
aa(lp61
I3
aa(lp62
I3
aa(lp63
I3
aa(lp64
I3
aa(lp65
I3
aa(lp66
I3
aa(lp67
I3
aa(lp68
I3
aa(lp69
I3
aa(lp70
I3
aa(lp71
I3
aa(lp72
I3
aa(lp73
I3
aa(lp74
I3
aa(lp75
I3
aa(lp76
I3
aa(lp77
I3
aa(lp78
I3
aa(lp79
I3
aa(lp80
I3
aa(lp81
I3
aa(lp82
I3
aa(lp83
I3
aa(lp84
I3
aa(lp85
I3
aa(lp86
I3
aa(lp87
I3
aa(lp88
I3
aa(lp89
I3
aa(lp90
I3
aa(lp91
I3
aa(lp92
I3
aa(lp93
I3
aa(lp94
I3
aa(lp95
I3
aa(lp96
I3
aa(lp97
I3
aa(lp98
I3
aa(lp99
I3
aa(lp100
I3
aa(lp101
I3
aa(lp102
I3
aa(lp103
I3
aa(lp104
I3
aa(lp105
I3
aa(lp106
I3
aa(lp107
I3
aa(lp108
I3
aa(lp109
I3
aa(lp110
I3
aa(lp111
I3
aa(lp112
I3
aa(lp113
I3
aa(lp114
I3
aa(lp115
I3
aa(lp116
I3
aa(lp117
I3
aaa(lp118
(lp119
I4
aa(lp120
I4
aa(lp121
I4
aa(lp122
I4
aa(lp123
I4
aa(lp124
I4
aa(lp125
I4
aa(lp126
I4
aa(lp127
I4
aa(lp128
I4
aaa(lp129
(lp130
I5
aa(lp131
I5
aa(lp132
I5
aa(lp133
I5
aa(lp134
I5
aa(lp135
I5
aa(lp136
I5
aa(lp137
I5
aa(lp138
I5
aa(lp139
I5
aa(lp140
I5
aa(lp141
I5
aa(lp142
I5
aa(lp143
I5
aa(lp144
I5
aa(lp145
I5
aa(lp146
I5
aa(lp147
I5
aa(lp148
I5
aa(lp149
I5
aa(lp150
I5
aa(lp151
I5
aa(lp152
I5
aa(lp153
I5
aa(lp154
I5
aa(lp155
I5
aa(lp156
I5
aa(lp157
I5
aa(lp158
I5
aaa.