(lp1
(lp2
(lp3
I3
aa(lp4
I3
aa(lp5
I3
aa(lp6
I3
aa(lp7
I3
aa(lp8
I3
aa(lp9
I3
aa(lp10
I3
aa(lp11
I3
aa(lp12
I3
aa(lp13
I3
aa(lp14
I3
aaa(lp15
(lp16
I6
aa(lp17
I6
aa(lp18
I6
aa(lp19
I6
aa(lp20
I6
aa(lp21
I6
aa(lp22
I6
aa(lp23
I6
aa(lp24
I6
aa(lp25
I6
aa(lp26
I6
aa(lp27
I6
aa(lp28
I6
aa(lp29
I6
aa(lp30
I6
aa(lp31
I6
aa(lp32
I6
aa(lp33
I6
aa(lp34
I6
aa(lp35
I6
aa(lp36
I6
aa(lp37
I6
aa(lp38
I6
aa(lp39
I6
aa(lp40
I6
aa(lp41
I6
aa(lp42
I6
aa(lp43
I6
aa(lp44
I6
aa(lp45
I6
aa(lp46
I6
aa(lp47
I6
aa(lp48
I6
aa(lp49
I6
aa(lp50
I6
aa(lp51
I6
aa(lp52
I6
aa(lp53
I6
aa(lp54
I6
aa(lp55
I6
aa(lp56
I6
aa(lp57
I6
aa(lp58
I6
aa(lp59
I6
aa(lp60
I6
aa(lp61
I6
aa(lp62
I6
aa(lp63
I6
aa(lp64
I6
aa(lp65
I6
aa(lp66
I6
aa(lp67
I6
aa(lp68
I6
aa(lp69
I6
aa(lp70
I6
aa(lp71
I6
aa(lp72
I6
aa(lp73
I6
aa(lp74
I6
aa(lp75
I6
aa(lp76
I6
aa(lp77
I6
aa(lp78
I6
aa(lp79
I6
aa(lp80
I6
aa(lp81
I6
aa(lp82
I6
aaa.